(dp0
(S'CC3'
p1
S'HQ'
p2
tp3
(lp4
(I550
I100
tp5
a(I466
I141
tp6
a(I369
I164
tp7
a(I297
I206
tp8
a(I253
I265
tp9
a(I221
I300
tp10
a(I167
I371
tp11
a(I100
I450
tp12
as(S'Admin'
p13
g1
tp14
(lp15
(I200
I150
tp16
a(I117
I230
tp17
a(I77
I308
tp18
a(I49
I360
tp19
a(I100
I450
tp20
as(S'Main-Gate'
p21
S'Cafeteria'
p22
tp23
(lp24
(I150
I0
tp25
a(I159
I5
tp26
a(I191
I42
tp27
a(I164
I63
tp28
a(I158
I112
tp29
a(I147
I148
tp30
a(I133
I173
tp31
a(I146
I228
tp32
a(I163
I236
tp33
a(I144
I285
tp34
a(I168
I334
tp35
a(I184
I356
tp36
a(I220
I362
tp37
a(I241
I389
tp38
a(I234
I420
tp39
a(I254
I447
tp40
a(I307
I459
tp41
a(I324
I459
tp42
a(I378
I451
tp43
a(I433
I442
tp44
a(I446
I438
tp45
a(I500
I450
tp46
as(S'Ground'
p47
g13
tp48
(lp49
(I200
I150
tp50
a(I239
I174
tp51
a(I266
I231
tp52
a(I326
I258
tp53
a(I400
I300
tp54
as(g2
g21
tp55
(lp56
(I150
I0
tp57
a(I172
I9
tp58
a(I244
I3
tp59
a(I291
I26
tp60
a(I369
I51
tp61
a(I396
I87
tp62
a(I431
I109
tp63
a(I479
I117
tp64
a(I550
I100
tp65
as(g47
g21
tp66
(lp67
(I150
I0
tp68
a(I185
I42
tp69
a(I210
I106
tp70
a(I234
I140
tp71
a(I271
I185
tp72
a(I319
I229
tp73
a(I372
I256
tp74
a(I400
I300
tp75
as(g2
g47
tp76
(lp77
(I550
I100
tp78
a(I526
I181
tp79
a(I468
I240
tp80
a(I400
I300
tp81
as(g13
g2
tp82
(lp83
(I200
I150
tp84
a(I314
I198
tp85
a(I385
I88
tp86
a(I504
I100
tp87
a(I550
I100
tp88
as(g2
S'Pocket-Gate'
p89
tp90
(lp91
(I400
I0
tp92
a(I431
I9
tp93
a(I470
I31
tp94
a(I496
I53
tp95
a(I550
I100
tp96
as(g13
g89
tp97
(lp98
(I400
I0
tp99
a(I354
I65
tp100
a(I262
I93
tp101
a(I200
I150
tp102
as(g21
g1
tp103
(lp104
(I150
I0
tp105
a(I153
I17
tp106
a(I149
I94
tp107
a(I141
I159
tp108
a(I121
I233
tp109
a(I115
I272
tp110
a(I107
I323
tp111
a(I99
I407
tp112
a(I100
I450
tp113
as(g13
g47
tp114
g49
s(g89
g47
tp115
(lp116
(I400
I0
tp117
a(I385
I45
tp118
a(I393
I96
tp119
a(I412
I126
tp120
a(I409
I156
tp121
a(I392
I206
tp122
a(I395
I223
tp123
a(I413
I266
tp124
a(I400
I300
tp125
as(g22
g21
tp126
g24
s(g2
g22
tp127
(lp128
(I550
I100
tp129
a(I537
I87
tp130
a(I473
I61
tp131
a(I406
I48
tp132
a(I373
I84
tp133
a(I334
I129
tp134
a(I294
I183
tp135
a(I266
I219
tp136
a(I244
I266
tp137
a(I274
I306
tp138
a(I281
I359
tp139
a(I291
I428
tp140
a(I333
I444
tp141
a(I377
I468
tp142
a(I444
I473
tp143
a(I500
I450
tp144
as(g1
g89
tp145
(lp146
(I400
I0
tp147
a(I369
I65
tp148
a(I316
I153
tp149
a(I289
I193
tp150
a(I234
I280
tp151
a(I176
I363
tp152
a(I149
I396
tp153
a(I100
I450
tp154
as(g89
g2
tp155
g91
s(g22
g13
tp156
(lp157
(I200
I150
tp158
a(I237
I235
tp159
a(I264
I334
tp160
a(I335
I433
tp161
a(I500
I450
tp162
as(g22
g47
tp163
(lp164
(I500
I450
tp165
a(I511
I396
tp166
a(I531
I345
tp167
a(I519
I299
tp168
a(I471
I301
tp169
a(I400
I300
tp170
as(g13
g22
tp171
g157
s(g1
g13
tp172
g15
s(g13
g21
tp173
(lp174
(I150
I0
tp175
a(I146
I34
tp176
a(I158
I71
tp177
a(I168
I130
tp178
a(I200
I150
tp179
as(g89
g1
tp180
g146
s(g47
g2
tp181
g77
s(g1
g47
tp182
(lp183
(I100
I450
tp184
a(I143
I441
tp185
a(I187
I417
tp186
a(I204
I369
tp187
a(I220
I337
tp188
a(I257
I322
tp189
a(I297
I328
tp190
a(I348
I296
tp191
a(I400
I300
tp192
as(g22
g1
tp193
(lp194
(I500
I450
tp195
a(I431
I468
tp196
a(I387
I499
tp197
a(I343
I542
tp198
a(I288
I564
tp199
a(I223
I545
tp200
a(I193
I480
tp201
a(I120
I454
tp202
a(I100
I450
tp203
as(g21
g13
tp204
g174
s(g2
g13
tp205
g83
s(g47
g1
tp206
g183
s(g22
g89
tp207
(lp208
(I400
I0
tp209
a(I427
I68
tp210
a(I433
I98
tp211
a(I469
I158
tp212
a(I499
I217
tp213
a(I530
I269
tp214
a(I529
I321
tp215
a(I506
I381
tp216
a(I500
I450
tp217
as(g89
g13
tp218
g98
s(g1
g22
tp219
g194
s(g47
g22
tp220
g164
s(g89
g22
tp221
g208
s(g22
g2
tp222
g128
s(g2
g1
tp223
g4
s(g1
g21
tp224
g104
s(g21
g47
tp225
g67
s(g47
g89
tp226
g116
s(g21
g2
tp227
g56
s.