(dp0
(S'Director'
p1
S'Accounts-Priority'
p2
tp3
(lp4
(I50
I25
tp5
a(I35
I70
tp6
as(g2
S'Accounts-Student'
p7
tp8
(lp9
(I35
I70
tp10
a(I38
I81
tp11
a(I35
I104
tp12
a(I35
I107
tp13
a(I35
I130
tp14
as(S'Dean-Affairs'
p15
S'Exam-Cell'
p16
tp17
(lp18
(I170
I100
tp19
a(I145
I102
tp20
a(I119
I102
tp21
a(I100
I100
tp22
as(S'Reception'
p23
g1
tp24
(lp25
(I50
I25
tp26
a(I49
I42
tp27
a(I56
I64
tp28
a(I57
I73
tp29
a(I59
I95
tp30
a(I59
I117
tp31
a(I63
I129
tp32
a(I65
I154
tp33
a(I50
I175
tp34
as(g16
S'Entry'
p35
tp36
(lp37
(I15
I200
tp38
a(I21
I193
tp39
a(I21
I181
tp40
a(I23
I169
tp41
a(I13
I166
tp42
a(I19
I155
tp43
a(I28
I151
tp44
a(I37
I144
tp45
a(I45
I142
tp46
a(I56
I142
tp47
a(I59
I135
tp48
a(I64
I124
tp49
a(I75
I120
tp50
a(I78
I113
tp51
a(I87
I112
tp52
a(I96
I105
tp53
a(I100
I100
tp54
as(g23
S'Exit1'
p55
tp56
(lp57
(I185
I0
tp58
a(I181
I8
tp59
a(I175
I28
tp60
a(I168
I40
tp61
a(I162
I52
tp62
a(I152
I71
tp63
a(I145
I85
tp64
a(I142
I92
tp65
a(I136
I112
tp66
a(I129
I118
tp67
a(I118
I129
tp68
a(I104
I139
tp69
a(I86
I149
tp70
a(I76
I154
tp71
a(I62
I165
tp72
a(I50
I175
tp73
as(S'Dean-Academics'
p74
g1
tp75
(lp76
(I50
I25
tp77
a(I59
I19
tp78
a(I65
I10
tp79
a(I80
I20
tp80
a(I87
I35
tp81
a(I100
I25
tp82
as(g7
g2
tp83
g9
s(g7
g55
tp84
(lp85
(I185
I0
tp86
a(I174
I4
tp87
a(I166
I6
tp88
a(I152
I14
tp89
a(I142
I21
tp90
a(I134
I28
tp91
a(I129
I43
tp92
a(I114
I49
tp93
a(I107
I58
tp94
a(I96
I69
tp95
a(I87
I77
tp96
a(I80
I83
tp97
a(I66
I92
tp98
a(I55
I102
tp99
a(I44
I116
tp100
a(I35
I130
tp101
as(S'Exit2'
p102
g23
tp103
(lp104
(I185
I200
tp105
a(I178
I199
tp106
a(I172
I188
tp107
a(I166
I185
tp108
a(I155
I185
tp109
a(I151
I184
tp110
a(I141
I186
tp111
a(I129
I185
tp112
a(I120
I184
tp113
a(I114
I187
tp114
a(I105
I180
tp115
a(I98
I181
tp116
a(I87
I175
tp117
a(I77
I173
tp118
a(I66
I177
tp119
a(I53
I177
tp120
a(I50
I175
tp121
as(g55
g1
tp122
(lp123
(I185
I0
tp124
a(I174
I6
tp125
a(I168
I15
tp126
a(I164
I19
tp127
a(I162
I31
tp128
a(I162
I42
tp129
a(I163
I50
tp130
a(I162
I59
tp131
a(I162
I66
tp132
a(I157
I73
tp133
a(I145
I75
tp134
a(I136
I73
tp135
a(I127
I73
tp136
a(I115
I70
tp137
a(I104
I67
tp138
a(I98
I59
tp139
a(I90
I50
tp140
a(I85
I44
tp141
a(I75
I37
tp142
a(I64
I37
tp143
a(I55
I36
tp144
a(I50
I25
tp145
as(g23
g7
tp146
(lp147
(I50
I175
tp148
a(I47
I163
tp149
a(I43
I151
tp150
a(I38
I136
tp151
a(I35
I130
tp152
as(g15
S'Bank'
p153
tp154
(lp155
(I150
I50
tp156
a(I149
I60
tp157
a(I153
I78
tp158
a(I159
I86
tp159
a(I170
I100
tp160
as(g1
S'COW'
p161
tp162
(lp163
(I50
I25
tp164
a(I68
I47
tp165
a(I102
I57
tp166
a(I122
I73
tp167
a(I131
I85
tp168
a(I148
I102
tp169
a(I139
I136
tp170
a(I147
I164
tp171
a(I150
I175
tp172
as(g161
g74
tp173
(lp174
(I150
I175
tp175
a(I149
I174
tp176
a(I140
I162
tp177
a(I134
I151
tp178
a(I138
I137
tp179
a(I141
I128
tp180
a(I143
I119
tp181
a(I145
I106
tp182
a(I145
I95
tp183
a(I142
I81
tp184
a(I138
I67
tp185
a(I131
I60
tp186
a(I122
I54
tp187
a(I117
I50
tp188
a(I107
I40
tp189
a(I98
I30
tp190
a(I100
I25
tp191
as(g161
g102
tp192
(lp193
(I185
I200
tp194
a(I171
I197
tp195
a(I161
I187
tp196
a(I159
I186
tp197
a(I150
I175
tp198
as(g2
g55
tp199
(lp200
(I185
I0
tp201
a(I173
I2
tp202
a(I160
I5
tp203
a(I148
I7
tp204
a(I141
I11
tp205
a(I129
I14
tp206
a(I124
I25
tp207
a(I115
I32
tp208
a(I106
I40
tp209
a(I91
I36
tp210
a(I88
I36
tp211
a(I73
I36
tp212
a(I70
I45
tp213
a(I63
I50
tp214
a(I54
I60
tp215
a(I48
I66
tp216
a(I35
I70
tp217
as(g7
g102
tp218
(lp219
(I185
I200
tp220
a(I175
I190
tp221
a(I166
I189
tp222
a(I154
I187
tp223
a(I145
I177
tp224
a(I132
I169
tp225
a(I121
I163
tp226
a(I110
I155
tp227
a(I99
I156
tp228
a(I90
I152
tp229
a(I82
I146
tp230
a(I69
I140
tp231
a(I54
I141
tp232
a(I42
I139
tp233
a(I35
I130
tp234
as(g102
g161
tp235
g193
s(g74
g23
tp236
(lp237
(I100
I25
tp238
a(I110
I35
tp239
a(I120
I45
tp240
a(I128
I51
tp241
a(I133
I64
tp242
a(I133
I79
tp243
a(I131
I89
tp244
a(I131
I104
tp245
a(I136
I114
tp246
a(I130
I125
tp247
a(I125
I138
tp248
a(I112
I143
tp249
a(I107
I154
tp250
a(I96
I159
tp251
a(I87
I155
tp252
a(I80
I154
tp253
a(I71
I159
tp254
a(I61
I165
tp255
a(I50
I175
tp256
as(g7
g23
tp257
g147
s(g23
g74
tp258
g237
s(g16
g15
tp259
g18
s(g23
g16
tp260
(lp261
(I100
I100
tp262
a(I89
I111
tp263
a(I80
I125
tp264
a(I77
I134
tp265
a(I68
I146
tp266
a(I60
I153
tp267
a(I48
I163
tp268
a(I50
I175
tp269
as(g153
g15
tp270
g155
s(g74
g153
tp271
(lp272
(I150
I50
tp273
a(I132
I49
tp274
a(I118
I47
tp275
a(I109
I33
tp276
a(I100
I25
tp277
as(g35
g23
tp278
(lp279
(I15
I200
tp280
a(I19
I195
tp281
a(I33
I190
tp282
a(I38
I188
tp283
a(I52
I181
tp284
a(I50
I175
tp285
as(g74
g35
tp286
(lp287
(I15
I200
tp288
a(I19
I190
tp289
a(I23
I179
tp290
a(I25
I169
tp291
a(I28
I155
tp292
a(I35
I149
tp293
a(I42
I141
tp294
a(I48
I133
tp295
a(I54
I115
tp296
a(I60
I101
tp297
a(I67
I89
tp298
a(I72
I74
tp299
a(I82
I61
tp300
a(I86
I55
tp301
a(I94
I40
tp302
a(I100
I25
tp303
as(g7
g161
tp304
(lp305
(I150
I175
tp306
a(I140
I167
tp307
a(I123
I156
tp308
a(I115
I148
tp309
a(I98
I139
tp310
a(I78
I137
tp311
a(I71
I136
tp312
a(I49
I133
tp313
a(I35
I130
tp314
as(g35
g153
tp315
(lp316
(I15
I200
tp317
a(I23
I187
tp318
a(I33
I170
tp319
a(I46
I155
tp320
a(I48
I150
tp321
a(I53
I136
tp322
a(I59
I123
tp323
a(I62
I106
tp324
a(I68
I95
tp325
a(I81
I80
tp326
a(I96
I69
tp327
a(I101
I68
tp328
a(I119
I61
tp329
a(I131
I55
tp330
a(I150
I50
tp331
as(g2
g74
tp332
(lp333
(I35
I70
tp334
a(I59
I61
tp335
a(I73
I54
tp336
a(I89
I41
tp337
a(I100
I25
tp338
as(g1
g7
tp339
(lp340
(I50
I25
tp341
a(I44
I23
tp342
a(I29
I28
tp343
a(I39
I43
tp344
a(I57
I50
tp345
a(I63
I60
tp346
a(I64
I75
tp347
a(I54
I87
tp348
a(I50
I92
tp349
a(I37
I105
tp350
a(I25
I95
tp351
a(I10
I105
tp352
a(I16
I114
tp353
a(I21
I132
tp354
a(I35
I130
tp355
as(g15
g102
tp356
(lp357
(I185
I200
tp358
a(I179
I184
tp359
a(I168
I170
tp360
a(I166
I156
tp361
a(I164
I138
tp362
a(I166
I131
tp363
a(I165
I116
tp364
a(I170
I100
tp365
as(g23
g2
tp366
(lp367
(I35
I70
tp368
a(I45
I74
tp369
a(I61
I83
tp370
a(I63
I87
tp371
a(I70
I103
tp372
a(I56
I110
tp373
a(I60
I126
tp374
a(I69
I143
tp375
a(I62
I155
tp376
a(I60
I162
tp377
a(I50
I175
tp378
as(g102
g1
tp379
(lp380
(I185
I200
tp381
a(I178
I185
tp382
a(I170
I170
tp383
a(I166
I158
tp384
a(I158
I142
tp385
a(I153
I123
tp386
a(I147
I107
tp387
a(I138
I87
tp388
a(I131
I79
tp389
a(I123
I64
tp390
a(I106
I54
tp391
a(I90
I58
tp392
a(I77
I44
tp393
a(I61
I34
tp394
a(I50
I25
tp395
as(g2
g23
tp396
g367
s(g102
g153
tp397
(lp398
(I185
I200
tp399
a(I181
I197
tp400
a(I173
I187
tp401
a(I176
I180
tp402
a(I171
I167
tp403
a(I168
I159
tp404
a(I161
I152
tp405
a(I154
I144
tp406
a(I147
I138
tp407
a(I136
I134
tp408
a(I131
I124
tp409
a(I133
I116
tp410
a(I128
I106
tp411
a(I133
I93
tp412
a(I138
I86
tp413
a(I143
I77
tp414
a(I143
I71
tp415
a(I147
I60
tp416
a(I150
I50
tp417
as(g153
g2
tp418
(lp419
(I35
I70
tp420
a(I37
I71
tp421
a(I57
I71
tp422
a(I77
I78
tp423
a(I85
I73
tp424
a(I101
I60
tp425
a(I118
I54
tp426
a(I138
I57
tp427
a(I150
I50
tp428
as(g153
g55
tp429
(lp430
(I185
I0
tp431
a(I183
I0
tp432
a(I173
I21
tp433
a(I169
I39
tp434
a(I150
I50
tp435
as(g2
g35
tp436
(lp437
(I15
I200
tp438
a(I14
I189
tp439
a(I15
I186
tp440
a(I14
I174
tp441
a(I16
I170
tp442
a(I21
I161
tp443
a(I23
I153
tp444
a(I19
I142
tp445
a(I17
I134
tp446
a(I16
I124
tp447
a(I18
I115
tp448
a(I29
I110
tp449
a(I31
I99
tp450
a(I39
I93
tp451
a(I41
I90
tp452
a(I38
I79
tp453
a(I35
I70
tp454
as(g16
g23
tp455
g261
s(g35
g74
tp456
g287
s(g74
g16
tp457
(lp458
(I100
I100
tp459
a(I101
I90
tp460
a(I109
I87
tp461
a(I121
I87
tp462
a(I130
I89
tp463
a(I141
I89
tp464
a(I146
I83
tp465
a(I137
I73
tp466
a(I136
I66
tp467
a(I128
I55
tp468
a(I123
I46
tp469
a(I119
I44
tp470
a(I110
I36
tp471
a(I101
I27
tp472
a(I100
I25
tp473
as(g15
g7
tp474
(lp475
(I170
I100
tp476
a(I172
I107
tp477
a(I164
I114
tp478
a(I159
I125
tp479
a(I152
I134
tp480
a(I144
I130
tp481
a(I135
I128
tp482
a(I127
I121
tp483
a(I115
I125
tp484
a(I110
I129
tp485
a(I103
I133
tp486
a(I101
I139
tp487
a(I94
I146
tp488
a(I82
I146
tp489
a(I77
I145
tp490
a(I69
I137
tp491
a(I58
I132
tp492
a(I48
I138
tp493
a(I43
I136
tp494
a(I35
I130
tp495
as(g2
g161
tp496
(lp497
(I35
I70
tp498
a(I38
I99
tp499
a(I59
I116
tp500
a(I79
I125
tp501
a(I99
I135
tp502
a(I110
I139
tp503
a(I130
I158
tp504
a(I150
I175
tp505
as(g161
g16
tp506
(lp507
(I150
I175
tp508
a(I145
I165
tp509
a(I144
I157
tp510
a(I137
I143
tp511
a(I133
I127
tp512
a(I123
I114
tp513
a(I111
I101
tp514
a(I100
I100
tp515
as(g15
g1
tp516
(lp517
(I50
I25
tp518
a(I50
I32
tp519
a(I33
I48
tp520
a(I20
I59
tp521
a(I8
I84
tp522
a(I0
I106
tp523
a(I15
I127
tp524
a(I24
I151
tp525
a(I30
I157
tp526
a(I50
I164
tp527
a(I74
I172
tp528
a(I98
I162
tp529
a(I122
I154
tp530
a(I138
I140
tp531
a(I141
I115
tp532
a(I150
I99
tp533
a(I170
I100
tp534
as(g55
g15
tp535
(lp536
(I185
I0
tp537
a(I186
I8
tp538
a(I187
I26
tp539
a(I185
I33
tp540
a(I183
I48
tp541
a(I178
I66
tp542
a(I172
I74
tp543
a(I168
I89
tp544
a(I170
I100
tp545
as(g23
g102
tp546
g104
s(g7
g74
tp547
(lp548
(I100
I25
tp549
a(I109
I29
tp550
a(I120
I32
tp551
a(I116
I41
tp552
a(I121
I48
tp553
a(I122
I58
tp554
a(I113
I63
tp555
a(I106
I62
tp556
a(I99
I62
tp557
a(I91
I69
tp558
a(I85
I72
tp559
a(I77
I77
tp560
a(I67
I79
tp561
a(I57
I83
tp562
a(I53
I86
tp563
a(I49
I97
tp564
a(I44
I105
tp565
a(I41
I106
tp566
a(I33
I113
tp567
a(I30
I117
tp568
a(I34
I128
tp569
a(I35
I130
tp570
as(g55
g23
tp571
g57
s(g16
g153
tp572
(lp573
(I150
I50
tp574
a(I135
I54
tp575
a(I122
I71
tp576
a(I111
I92
tp577
a(I100
I100
tp578
as(g161
g7
tp579
g305
s(g161
g35
tp580
(lp581
(I15
I200
tp582
a(I19
I196
tp583
a(I44
I199
tp584
a(I57
I196
tp585
a(I75
I190
tp586
a(I90
I190
tp587
a(I107
I187
tp588
a(I127
I181
tp589
a(I150
I175
tp590
as(g74
g7
tp591
g548
s(g1
g102
tp592
g380
s(g7
g153
tp593
(lp594
(I150
I50
tp595
a(I134
I62
tp596
a(I110
I68
tp597
a(I90
I75
tp598
a(I69
I89
tp599
a(I55
I106
tp600
a(I42
I112
tp601
a(I35
I130
tp602
as(g74
g15
tp603
(lp604
(I170
I100
tp605
a(I180
I94
tp606
a(I190
I87
tp607
a(I190
I68
tp608
a(I182
I52
tp609
a(I183
I38
tp610
a(I168
I27
tp611
a(I155
I30
tp612
a(I140
I23
tp613
a(I126
I19
tp614
a(I113
I20
tp615
a(I100
I25
tp616
as(g7
g35
tp617
(lp618
(I15
I200
tp619
a(I18
I193
tp620
a(I23
I184
tp621
a(I30
I176
tp622
a(I29
I163
tp623
a(I34
I153
tp624
a(I38
I142
tp625
a(I35
I130
tp626
as(g161
g15
tp627
(lp628
(I170
I100
tp629
a(I175
I104
tp630
a(I170
I116
tp631
a(I169
I129
tp632
a(I157
I134
tp633
a(I152
I139
tp634
a(I148
I150
tp635
a(I148
I163
tp636
a(I150
I175
tp637
as(g102
g74
tp638
(lp639
(I185
I200
tp640
a(I176
I184
tp641
a(I172
I174
tp642
a(I162
I162
tp643
a(I160
I159
tp644
a(I151
I144
tp645
a(I145
I128
tp646
a(I136
I112
tp647
a(I131
I98
tp648
a(I128
I88
tp649
a(I122
I73
tp650
a(I115
I61
tp651
a(I108
I44
tp652
a(I107
I40
tp653
a(I100
I25
tp654
as(g2
g1
tp655
g4
s(g35
g7
tp656
g618
s(g161
g55
tp657
(lp658
(I185
I0
tp659
a(I178
I11
tp660
a(I182
I27
tp661
a(I184
I37
tp662
a(I185
I51
tp663
a(I184
I67
tp664
a(I185
I83
tp665
a(I187
I91
tp666
a(I190
I105
tp667
a(I182
I112
tp668
a(I171
I124
tp669
a(I165
I135
tp670
a(I162
I151
tp671
a(I165
I159
tp672
a(I153
I171
tp673
a(I150
I175
tp674
as(g1
g74
tp675
g76
s(g1
g153
tp676
(lp677
(I50
I25
tp678
a(I74
I47
tp679
a(I99
I41
tp680
a(I120
I40
tp681
a(I150
I50
tp682
as(g23
g15
tp683
(lp684
(I170
I100
tp685
a(I158
I106
tp686
a(I140
I115
tp687
a(I122
I130
tp688
a(I102
I141
tp689
a(I84
I157
tp690
a(I71
I169
tp691
a(I50
I175
tp692
as(g1
g23
tp693
g25
s(g102
g7
tp694
g219
s(g55
g2
tp695
g200
s(g153
g1
tp696
g677
s(g1
g35
tp697
(lp698
(I15
I200
tp699
a(I18
I184
tp700
a(I21
I179
tp701
a(I28
I168
tp702
a(I30
I156
tp703
a(I30
I143
tp704
a(I25
I137
tp705
a(I22
I126
tp706
a(I27
I116
tp707
a(I29
I110
tp708
a(I33
I96
tp709
a(I35
I86
tp710
a(I46
I74
tp711
a(I50
I64
tp712
a(I52
I50
tp713
a(I49
I40
tp714
a(I50
I25
tp715
as(g153
g23
tp716
(lp717
(I150
I50
tp718
a(I159
I49
tp719
a(I170
I57
tp720
a(I180
I69
tp721
a(I169
I80
tp722
a(I154
I81
tp723
a(I152
I86
tp724
a(I143
I97
tp725
a(I133
I108
tp726
a(I127
I116
tp727
a(I120
I121
tp728
a(I117
I130
tp729
a(I112
I137
tp730
a(I101
I127
tp731
a(I98
I126
tp732
a(I84
I126
tp733
a(I79
I125
tp734
a(I67
I122
tp735
a(I62
I125
tp736
a(I59
I138
tp737
a(I61
I143
tp738
a(I47
I150
tp739
a(I49
I161
tp740
a(I50
I175
tp741
as(g7
g16
tp742
(lp743
(I100
I100
tp744
a(I96
I103
tp745
a(I89
I113
tp746
a(I82
I121
tp747
a(I75
I124
tp748
a(I68
I128
tp749
a(I60
I129
tp750
a(I52
I139
tp751
a(I45
I130
tp752
a(I35
I130
tp753
as(g161
g2
tp754
g497
s(g35
g1
tp755
g698
s(g2
g15
tp756
(lp757
(I35
I70
tp758
a(I43
I54
tp759
a(I64
I53
tp760
a(I77
I58
tp761
a(I94
I58
tp762
a(I114
I58
tp763
a(I129
I59
tp764
a(I152
I70
tp765
a(I165
I92
tp766
a(I170
I100
tp767
as(g15
g2
tp768
g757
s(g153
g102
tp769
g398
s(g153
g74
tp770
g272
s(g35
g161
tp771
g581
s(g161
g153
tp772
(lp773
(I150
I50
tp774
a(I153
I70
tp775
a(I141
I90
tp776
a(I144
I101
tp777
a(I148
I113
tp778
a(I139
I131
tp779
a(I140
I149
tp780
a(I148
I170
tp781
a(I150
I175
tp782
as(g16
g55
tp783
(lp784
(I185
I0
tp785
a(I184
I9
tp786
a(I180
I21
tp787
a(I174
I32
tp788
a(I165
I37
tp789
a(I160
I27
tp790
a(I155
I22
tp791
a(I147
I20
tp792
a(I139
I29
tp793
a(I136
I36
tp794
a(I130
I40
tp795
a(I121
I48
tp796
a(I114
I54
tp797
a(I113
I66
tp798
a(I109
I74
tp799
a(I106
I86
tp800
a(I102
I89
tp801
a(I100
I100
tp802
as(g16
g1
tp803
(lp804
(I50
I25
tp805
a(I74
I47
tp806
a(I100
I70
tp807
a(I100
I100
tp808
as(g16
g2
tp809
(lp810
(I35
I70
tp811
a(I53
I87
tp812
a(I72
I91
tp813
a(I89
I95
tp814
a(I100
I100
tp815
as(g153
g35
tp816
g316
s(g74
g102
tp817
g639
s(g74
g161
tp818
g174
s(g2
g16
tp819
g810
s(g16
g74
tp820
g458
s(g15
g74
tp821
g604
s(g55
g16
tp822
g784
s(g55
g74
tp823
(lp824
(I185
I0
tp825
a(I180
I1
tp826
a(I166
I2
tp827
a(I157
I8
tp828
a(I149
I11
tp829
a(I139
I19
tp830
a(I134
I21
tp831
a(I125
I32
tp832
a(I114
I29
tp833
a(I100
I25
tp834
as(g74
g55
tp835
g824
s(g2
g153
tp836
g419
s(g153
g7
tp837
g594
s(g15
g55
tp838
g536
s(g102
g16
tp839
(lp840
(I185
I200
tp841
a(I175
I193
tp842
a(I169
I190
tp843
a(I164
I180
tp844
a(I157
I174
tp845
a(I157
I164
tp846
a(I155
I153
tp847
a(I153
I141
tp848
a(I152
I136
tp849
a(I142
I128
tp850
a(I145
I119
tp851
a(I143
I115
tp852
a(I136
I109
tp853
a(I132
I104
tp854
a(I125
I94
tp855
a(I117
I95
tp856
a(I107
I100
tp857
a(I100
I100
tp858
as(g15
g35
tp859
(lp860
(I15
I200
tp861
a(I28
I198
tp862
a(I43
I195
tp863
a(I47
I193
tp864
a(I62
I186
tp865
a(I65
I175
tp866
a(I71
I164
tp867
a(I78
I154
tp868
a(I90
I144
tp869
a(I103
I134
tp870
a(I107
I132
tp871
a(I121
I130
tp872
a(I131
I124
tp873
a(I140
I114
tp874
a(I152
I103
tp875
a(I164
I102
tp876
a(I170
I100
tp877
as(g16
g7
tp878
g743
s(g7
g1
tp879
g340
s(g23
g161
tp880
(lp881
(I150
I175
tp882
a(I139
I177
tp883
a(I130
I176
tp884
a(I117
I169
tp885
a(I102
I166
tp886
a(I84
I164
tp887
a(I65
I170
tp888
a(I50
I175
tp889
as(g15
g23
tp890
g684
s(g35
g16
tp891
g37
s(g153
g16
tp892
g573
s(g161
g1
tp893
g163
s(g23
g153
tp894
g717
s(g35
g2
tp895
g437
s(g1
g15
tp896
g517
s(g55
g161
tp897
g658
s(g16
g102
tp898
g840
s(g1
g55
tp899
g123
s(g15
g161
tp900
g628
s(g35
g15
tp901
g860
s(g16
g161
tp902
g507
s(g74
g2
tp903
g333
s(g55
g7
tp904
g85
s(g23
g35
tp905
g279
s(g55
g153
tp906
g430
s(g102
g15
tp907
g357
s(g102
g2
tp908
(lp909
(I185
I200
tp910
a(I175
I197
tp911
a(I161
I195
tp912
a(I148
I188
tp913
a(I133
I179
tp914
a(I119
I169
tp915
a(I106
I161
tp916
a(I90
I151
tp917
a(I80
I146
tp918
a(I68
I138
tp919
a(I61
I132
tp920
a(I52
I123
tp921
a(I47
I116
tp922
a(I38
I105
tp923
a(I34
I95
tp924
a(I36
I81
tp925
a(I35
I70
tp926
as(g2
g102
tp927
g909
s(g7
g15
tp928
g475
s(g161
g23
tp929
g881
s(g1
g16
tp930
g804
s(g153
g161
tp931
g773
s.