(dp0
(S'P3'
p1
S'P1'
p2
tp3
(lp4
(I300
I350
tp5
a(I269
I288
tp6
a(I285
I214
tp7
a(I300
I150
tp8
as(S'P2'
p9
S'W2'
p10
tp11
(lp12
(I300
I250
tp13
a(I319
I319
tp14
a(I341
I383
tp15
a(I350
I430
tp16
as(g10
S'Entry2'
p17
tp18
(lp19
(I200
I0
tp20
a(I196
I32
tp21
a(I217
I69
tp22
a(I225
I98
tp23
a(I252
I126
tp24
a(I273
I158
tp25
a(I280
I169
tp26
a(I302
I202
tp27
a(I324
I241
tp28
a(I331
I285
tp29
a(I331
I295
tp30
a(I347
I332
tp31
a(I358
I361
tp32
a(I357
I404
tp33
a(I350
I430
tp34
as(g2
g9
tp35
(lp36
(I300
I250
tp37
a(I303
I207
tp38
a(I300
I150
tp39
as(S'W4'
p40
S'Exit2'
p41
tp42
(lp43
(I400
I0
tp44
a(I389
I27
tp45
a(I374
I44
tp46
a(I350
I23
tp47
a(I331
I33
tp48
a(I325
I43
tp49
a(I344
I66
tp50
a(I350
I70
tp51
as(g1
S'Entry1'
p52
tp53
(lp54
(I200
I500
tp55
a(I211
I469
tp56
a(I241
I476
tp57
a(I273
I462
tp58
a(I300
I456
tp59
a(I308
I438
tp60
a(I318
I417
tp61
a(I301
I388
tp62
a(I302
I358
tp63
a(I300
I350
tp64
as(g1
S'Exit1'
p65
tp66
(lp67
(I400
I500
tp68
a(I414
I467
tp69
a(I433
I437
tp70
a(I404
I427
tp71
a(I390
I423
tp72
a(I369
I401
tp73
a(I350
I395
tp74
a(I323
I372
tp75
a(I300
I350
tp76
as(g52
g10
tp77
(lp78
(I200
I500
tp79
a(I201
I495
tp80
a(I229
I484
tp81
a(I217
I462
tp82
a(I208
I457
tp83
a(I205
I426
tp84
a(I205
I414
tp85
a(I214
I394
tp86
a(I221
I363
tp87
a(I238
I349
tp88
a(I239
I334
tp89
a(I240
I309
tp90
a(I254
I299
tp91
a(I276
I286
tp92
a(I302
I296
tp93
a(I316
I312
tp94
a(I326
I336
tp95
a(I334
I359
tp96
a(I345
I381
tp97
a(I350
I410
tp98
a(I350
I430
tp99
as(S'W1'
p100
g40
tp101
(lp102
(I350
I70
tp103
a(I343
I134
tp104
a(I338
I207
tp105
a(I330
I268
tp106
a(I294
I330
tp107
a(I282
I331
tp108
a(I261
I399
tp109
a(I250
I430
tp110
as(g100
g41
tp111
(lp112
(I400
I0
tp113
a(I378
I17
tp114
a(I359
I28
tp115
a(I326
I49
tp116
a(I312
I64
tp117
a(I285
I88
tp118
a(I276
I105
tp119
a(I259
I141
tp120
a(I250
I152
tp121
a(I238
I189
tp122
a(I251
I222
tp123
a(I260
I258
tp124
a(I256
I300
tp125
a(I249
I344
tp126
a(I253
I370
tp127
a(I250
I395
tp128
a(I250
I430
tp129
as(g9
g2
tp130
g36
s(g100
g17
tp131
(lp132
(I200
I0
tp133
a(I201
I29
tp134
a(I202
I51
tp135
a(I198
I86
tp136
a(I193
I123
tp137
a(I196
I164
tp138
a(I207
I204
tp139
a(I211
I236
tp140
a(I211
I274
tp141
a(I209
I296
tp142
a(I220
I332
tp143
a(I234
I365
tp144
a(I248
I397
tp145
a(I250
I430
tp146
as(g100
S'W3'
p147
tp148
(lp149
(I250
I70
tp150
a(I229
I95
tp151
a(I252
I121
tp152
a(I259
I151
tp153
a(I262
I165
tp154
a(I253
I195
tp155
a(I220
I206
tp156
a(I228
I228
tp157
a(I241
I239
tp158
a(I248
I258
tp159
a(I249
I279
tp160
a(I247
I313
tp161
a(I256
I342
tp162
a(I265
I371
tp163
a(I244
I394
tp164
a(I219
I418
tp165
a(I250
I430
tp166
as(g41
g10
tp167
(lp168
(I400
I0
tp169
a(I413
I13
tp170
a(I424
I45
tp171
a(I423
I83
tp172
a(I428
I115
tp173
a(I425
I141
tp174
a(I419
I168
tp175
a(I420
I188
tp176
a(I404
I215
tp177
a(I398
I243
tp178
a(I395
I272
tp179
a(I380
I309
tp180
a(I378
I330
tp181
a(I367
I351
tp182
a(I359
I387
tp183
a(I348
I410
tp184
a(I350
I430
tp185
as(g41
g9
tp186
(lp187
(I400
I0
tp188
a(I405
I8
tp189
a(I409
I56
tp190
a(I388
I84
tp191
a(I367
I126
tp192
a(I343
I163
tp193
a(I323
I210
tp194
a(I300
I250
tp195
as(g17
g147
tp196
(lp197
(I200
I0
tp198
a(I217
I6
tp199
a(I214
I33
tp200
a(I236
I40
tp201
a(I242
I64
tp202
a(I250
I70
tp203
as(g10
g52
tp204
g78
s(g65
g100
tp205
(lp206
(I400
I500
tp207
a(I380
I486
tp208
a(I351
I481
tp209
a(I331
I461
tp210
a(I309
I443
tp211
a(I309
I418
tp212
a(I283
I404
tp213
a(I276
I416
tp214
a(I250
I430
tp215
as(g65
g2
tp216
(lp217
(I400
I500
tp218
a(I415
I495
tp219
a(I440
I477
tp220
a(I429
I443
tp221
a(I413
I426
tp222
a(I405
I400
tp223
a(I393
I379
tp224
a(I392
I352
tp225
a(I398
I319
tp226
a(I389
I285
tp227
a(I387
I280
tp228
a(I355
I266
tp229
a(I340
I259
tp230
a(I318
I239
tp231
a(I307
I208
tp232
a(I298
I175
tp233
a(I300
I150
tp234
as(g1
g41
tp235
(lp236
(I400
I0
tp237
a(I375
I18
tp238
a(I371
I42
tp239
a(I392
I52
tp240
a(I392
I77
tp241
a(I389
I97
tp242
a(I403
I129
tp243
a(I385
I148
tp244
a(I386
I180
tp245
a(I389
I189
tp246
a(I375
I219
tp247
a(I362
I251
tp248
a(I340
I265
tp249
a(I329
I296
tp250
a(I310
I323
tp251
a(I300
I350
tp252
as(g40
g9
tp253
(lp254
(I300
I250
tp255
a(I349
I205
tp256
a(I382
I153
tp257
a(I359
I108
tp258
a(I350
I70
tp259
as(g9
g52
tp260
(lp261
(I200
I500
tp262
a(I185
I467
tp263
a(I192
I436
tp264
a(I208
I407
tp265
a(I228
I375
tp266
a(I264
I348
tp267
a(I272
I323
tp268
a(I290
I295
tp269
a(I300
I250
tp270
as(g2
g65
tp271
g217
s(g10
g40
tp272
(lp273
(I350
I70
tp274
a(I363
I42
tp275
a(I398
I34
tp276
a(I401
I68
tp277
a(I403
I97
tp278
a(I377
I116
tp279
a(I362
I135
tp280
a(I371
I169
tp281
a(I392
I198
tp282
a(I404
I227
tp283
a(I411
I255
tp284
a(I405
I270
tp285
a(I412
I293
tp286
a(I420
I304
tp287
a(I436
I332
tp288
a(I423
I358
tp289
a(I420
I372
tp290
a(I399
I401
tp291
a(I395
I430
tp292
a(I377
I444
tp293
a(I350
I430
tp294
as(g147
g100
tp295
g149
s(g65
g40
tp296
(lp297
(I400
I500
tp298
a(I371
I479
tp299
a(I388
I446
tp300
a(I406
I410
tp301
a(I405
I403
tp302
a(I399
I366
tp303
a(I394
I361
tp304
a(I402
I323
tp305
a(I405
I295
tp306
a(I385
I268
tp307
a(I379
I249
tp308
a(I372
I219
tp309
a(I368
I177
tp310
a(I351
I143
tp311
a(I340
I112
tp312
a(I341
I92
tp313
a(I350
I70
tp314
as(g52
g1
tp315
g54
s(g147
g40
tp316
(lp317
(I350
I70
tp318
a(I326
I62
tp319
a(I311
I58
tp320
a(I277
I57
tp321
a(I250
I70
tp322
as(g40
g147
tp323
g317
s(g65
g9
tp324
(lp325
(I400
I500
tp326
a(I385
I458
tp327
a(I381
I408
tp328
a(I387
I361
tp329
a(I353
I331
tp330
a(I330
I311
tp331
a(I340
I277
tp332
a(I300
I250
tp333
as(g100
g2
tp334
(lp335
(I300
I150
tp336
a(I294
I195
tp337
a(I285
I222
tp338
a(I266
I259
tp339
a(I256
I298
tp340
a(I241
I350
tp341
a(I237
I397
tp342
a(I250
I430
tp343
as(g1
g10
tp344
(lp345
(I300
I350
tp346
a(I317
I386
tp347
a(I350
I430
tp348
as(g9
g17
tp349
(lp350
(I200
I0
tp351
a(I201
I27
tp352
a(I201
I76
tp353
a(I207
I121
tp354
a(I226
I153
tp355
a(I243
I175
tp356
a(I276
I213
tp357
a(I300
I250
tp358
as(g10
g9
tp359
g12
s(g9
g147
tp360
(lp361
(I300
I250
tp362
a(I299
I280
tp363
a(I291
I322
tp364
a(I245
I374
tp365
a(I198
I362
tp366
a(I181
I325
tp367
a(I190
I270
tp368
a(I175
I223
tp369
a(I223
I185
tp370
a(I233
I129
tp371
a(I250
I70
tp372
as(g10
g100
tp373
(lp374
(I350
I430
tp375
a(I321
I430
tp376
a(I309
I425
tp377
a(I271
I418
tp378
a(I250
I430
tp379
as(g2
g1
tp380
g4
s(g147
g1
tp381
(lp382
(I300
I350
tp383
a(I256
I318
tp384
a(I249
I285
tp385
a(I238
I264
tp386
a(I269
I229
tp387
a(I276
I187
tp388
a(I274
I146
tp389
a(I242
I111
tp390
a(I250
I70
tp391
as(g147
g41
tp392
(lp393
(I400
I0
tp394
a(I358
I18
tp395
a(I320
I42
tp396
a(I287
I58
tp397
a(I250
I70
tp398
as(g40
g52
tp399
(lp400
(I200
I500
tp401
a(I211
I459
tp402
a(I217
I426
tp403
a(I210
I387
tp404
a(I222
I347
tp405
a(I225
I339
tp406
a(I241
I305
tp407
a(I238
I269
tp408
a(I245
I250
tp409
a(I272
I218
tp410
a(I276
I192
tp411
a(I259
I155
tp412
a(I277
I124
tp413
a(I296
I108
tp414
a(I322
I91
tp415
a(I350
I70
tp416
as(g1
g17
tp417
(lp418
(I200
I0
tp419
a(I172
I5
tp420
a(I175
I29
tp421
a(I173
I44
tp422
a(I157
I76
tp423
a(I141
I99
tp424
a(I113
I121
tp425
a(I132
I148
tp426
a(I139
I180
tp427
a(I164
I193
tp428
a(I183
I210
tp429
a(I200
I226
tp430
a(I194
I251
tp431
a(I213
I280
tp432
a(I224
I281
tp433
a(I236
I311
tp434
a(I270
I321
tp435
a(I286
I330
tp436
a(I300
I350
tp437
as(g41
g2
tp438
(lp439
(I400
I0
tp440
a(I372
I3
tp441
a(I339
I17
tp442
a(I312
I35
tp443
a(I300
I40
tp444
a(I270
I40
tp445
a(I249
I35
tp446
a(I223
I48
tp447
a(I195
I59
tp448
a(I182
I90
tp449
a(I170
I105
tp450
a(I141
I119
tp451
a(I119
I131
tp452
a(I135
I158
tp453
a(I163
I175
tp454
a(I193
I187
tp455
a(I210
I175
tp456
a(I211
I140
tp457
a(I239
I124
tp458
a(I255
I151
tp459
a(I280
I136
tp460
a(I300
I150
tp461
as(g17
g10
tp462
g19
s(g100
g52
tp463
(lp464
(I200
I500
tp465
a(I219
I492
tp466
a(I250
I491
tp467
a(I264
I476
tp468
a(I264
I454
tp469
a(I250
I430
tp470
as(g17
g1
tp471
g418
s(g52
g2
tp472
(lp473
(I200
I500
tp474
a(I179
I473
tp475
a(I179
I439
tp476
a(I185
I409
tp477
a(I173
I394
tp478
a(I174
I365
tp479
a(I197
I342
tp480
a(I218
I313
tp481
a(I234
I286
tp482
a(I233
I267
tp483
a(I229
I233
tp484
a(I235
I205
tp485
a(I268
I192
tp486
a(I293
I168
tp487
a(I300
I150
tp488
as(g41
g1
tp489
g236
s(g40
g65
tp490
g297
s(g2
g147
tp491
(lp492
(I300
I150
tp493
a(I280
I154
tp494
a(I252
I145
tp495
a(I247
I121
tp496
a(I231
I114
tp497
a(I236
I82
tp498
a(I250
I70
tp499
as(g10
g2
tp500
(lp501
(I300
I150
tp502
a(I294
I186
tp503
a(I274
I236
tp504
a(I263
I277
tp505
a(I265
I332
tp506
a(I276
I363
tp507
a(I318
I390
tp508
a(I350
I430
tp509
as(g40
g100
tp510
g102
s(g65
g10
tp511
(lp512
(I400
I500
tp513
a(I387
I476
tp514
a(I388
I450
tp515
a(I370
I439
tp516
a(I350
I430
tp517
as(g100
g1
tp518
(lp519
(I300
I350
tp520
a(I282
I375
tp521
a(I250
I430
tp522
as(g40
g1
tp523
(lp524
(I300
I350
tp525
a(I328
I330
tp526
a(I357
I296
tp527
a(I365
I251
tp528
a(I382
I208
tp529
a(I363
I180
tp530
a(I362
I132
tp531
a(I353
I101
tp532
a(I350
I70
tp533
as(g2
g52
tp534
g473
s(g9
g100
tp535
(lp536
(I300
I250
tp537
a(I269
I280
tp538
a(I232
I316
tp539
a(I234
I382
tp540
a(I250
I430
tp541
as(g10
g147
tp542
(lp543
(I250
I70
tp544
a(I273
I75
tp545
a(I296
I103
tp546
a(I304
I117
tp547
a(I331
I136
tp548
a(I356
I135
tp549
a(I372
I157
tp550
a(I387
I160
tp551
a(I413
I157
tp552
a(I436
I162
tp553
a(I443
I193
tp554
a(I414
I213
tp555
a(I403
I227
tp556
a(I377
I240
tp557
a(I359
I269
tp558
a(I373
I290
tp559
a(I385
I312
tp560
a(I380
I344
tp561
a(I381
I379
tp562
a(I395
I404
tp563
a(I372
I416
tp564
a(I350
I430
tp565
as(g147
g65
tp566
(lp567
(I400
I500
tp568
a(I392
I458
tp569
a(I382
I430
tp570
a(I374
I388
tp571
a(I368
I375
tp572
a(I362
I338
tp573
a(I353
I314
tp574
a(I353
I288
tp575
a(I348
I249
tp576
a(I352
I219
tp577
a(I337
I182
tp578
a(I321
I146
tp579
a(I319
I132
tp580
a(I280
I121
tp581
a(I273
I83
tp582
a(I250
I70
tp583
as(g147
g52
tp584
(lp585
(I200
I500
tp586
a(I188
I470
tp587
a(I195
I429
tp588
a(I211
I399
tp589
a(I218
I372
tp590
a(I210
I343
tp591
a(I208
I319
tp592
a(I219
I283
tp593
a(I219
I247
tp594
a(I212
I212
tp595
a(I225
I176
tp596
a(I246
I148
tp597
a(I241
I107
tp598
a(I250
I70
tp599
as(g147
g2
tp600
g492
s(g147
g10
tp601
g543
s(g52
g147
tp602
g585
s(g100
g65
tp603
g206
s(g10
g65
tp604
g512
s(g1
g40
tp605
g524
s(g2
g40
tp606
(lp607
(I300
I150
tp608
a(I329
I145
tp609
a(I337
I119
tp610
a(I353
I90
tp611
a(I350
I70
tp612
as(g147
g17
tp613
g197
s(g100
g10
tp614
g374
s(g40
g10
tp615
g273
s(g41
g147
tp616
g393
s(g17
g100
tp617
g132
s(g1
g100
tp618
g519
s(g2
g100
tp619
g335
s(g10
g1
tp620
g345
s(g9
g40
tp621
g254
s(g9
g41
tp622
g187
s(g147
g9
tp623
g361
s(g41
g40
tp624
g43
s(g17
g9
tp625
g350
s(g40
g2
tp626
g607
s(g40
g17
tp627
(lp628
(I200
I0
tp629
a(I220
I22
tp630
a(I268
I31
tp631
a(I315
I57
tp632
a(I350
I70
tp633
as(g2
g41
tp634
g439
s(g1
g9
tp635
(lp636
(I300
I250
tp637
a(I348
I283
tp638
a(I383
I304
tp639
a(I421
I341
tp640
a(I418
I420
tp641
a(I372
I479
tp642
a(I326
I472
tp643
a(I302
I406
tp644
a(I300
I350
tp645
as(g10
g41
tp646
g168
s(g17
g2
tp647
(lp648
(I200
I0
tp649
a(I224
I10
tp650
a(I237
I31
tp651
a(I263
I39
tp652
a(I283
I60
tp653
a(I289
I91
tp654
a(I299
I108
tp655
a(I301
I128
tp656
a(I300
I150
tp657
as(g9
g1
tp658
g636
s(g52
g100
tp659
g464
s(g52
g9
tp660
g261
s(g17
g40
tp661
g628
s(g2
g10
tp662
g501
s(g2
g17
tp663
g648
s(g9
g65
tp664
g325
s(g41
g100
tp665
g112
s(g65
g147
tp666
g567
s(g65
g1
tp667
g67
s(g100
g9
tp668
g536
s(g1
g147
tp669
g382
s(g52
g40
tp670
g400
s.