(dp0
(S'CC3'
p1
S'HQ'
p2
tp3
(lp4
(I550
I100
tp5
a(I572
I206
tp6
a(I552
I289
tp7
a(I568
I334
tp8
a(I482
I396
tp9
a(I402
I458
tp10
a(I380
I484
tp11
a(I269
I472
tp12
a(I184
I463
tp13
a(I100
I450
tp14
as(S'Admin'
p15
g1
tp16
(lp17
(I200
I150
tp18
a(I226
I232
tp19
a(I208
I339
tp20
a(I177
I394
tp21
a(I100
I450
tp22
as(S'Main-Gate'
p23
S'Cafeteria'
p24
tp25
(lp26
(I150
I0
tp27
a(I195
I22
tp28
a(I249
I28
tp29
a(I261
I34
tp30
a(I310
I33
tp31
a(I352
I43
tp32
a(I379
I54
tp33
a(I420
I75
tp34
a(I447
I112
tp35
a(I463
I147
tp36
a(I485
I180
tp37
a(I511
I202
tp38
a(I531
I240
tp39
a(I560
I263
tp40
a(I539
I312
tp41
a(I525
I350
tp42
a(I495
I397
tp43
a(I500
I450
tp44
as(S'Ground'
p45
g15
tp46
(lp47
(I200
I150
tp48
a(I235
I157
tp49
a(I288
I216
tp50
a(I318
I266
tp51
a(I400
I300
tp52
as(g2
g23
tp53
(lp54
(I150
I0
tp55
a(I224
I27
tp56
a(I251
I34
tp57
a(I304
I48
tp58
a(I354
I63
tp59
a(I420
I83
tp60
a(I491
I90
tp61
a(I550
I100
tp62
as(g45
g23
tp63
(lp64
(I150
I0
tp65
a(I201
I31
tp66
a(I257
I45
tp67
a(I293
I64
tp68
a(I330
I90
tp69
a(I334
I164
tp70
a(I365
I207
tp71
a(I381
I280
tp72
a(I400
I300
tp73
as(g2
g45
tp74
(lp75
(I550
I100
tp76
a(I512
I172
tp77
a(I474
I257
tp78
a(I400
I300
tp79
as(g15
g2
tp80
(lp81
(I200
I150
tp82
a(I281
I149
tp83
a(I376
I136
tp84
a(I454
I184
tp85
a(I550
I100
tp86
as(g2
S'Pocket-Gate'
p87
tp88
(lp89
(I400
I0
tp90
a(I434
I47
tp91
a(I465
I80
tp92
a(I494
I91
tp93
a(I550
I100
tp94
as(g15
g87
tp95
(lp96
(I400
I0
tp97
a(I378
I43
tp98
a(I362
I69
tp99
a(I316
I75
tp100
a(I274
I83
tp101
a(I243
I121
tp102
a(I209
I138
tp103
a(I200
I150
tp104
as(g23
g1
tp105
(lp106
(I150
I0
tp107
a(I117
I73
tp108
a(I93
I156
tp109
a(I74
I222
tp110
a(I84
I296
tp111
a(I88
I326
tp112
a(I98
I395
tp113
a(I100
I450
tp114
as(g15
g45
tp115
g47
s(g87
g45
tp116
(lp117
(I400
I0
tp118
a(I395
I14
tp119
a(I425
I65
tp120
a(I408
I90
tp121
a(I391
I128
tp122
a(I387
I181
tp123
a(I379
I236
tp124
a(I402
I267
tp125
a(I400
I300
tp126
as(g24
g23
tp127
g26
s(g2
g24
tp128
(lp129
(I550
I100
tp130
a(I538
I226
tp131
a(I524
I329
tp132
a(I500
I450
tp133
as(g1
g87
tp134
(lp135
(I400
I0
tp136
a(I351
I86
tp137
a(I341
I125
tp138
a(I310
I197
tp139
a(I240
I279
tp140
a(I175
I352
tp141
a(I157
I384
tp142
a(I100
I450
tp143
as(g87
g2
tp144
g89
s(g24
g15
tp145
(lp146
(I200
I150
tp147
a(I157
I265
tp148
a(I248
I373
tp149
a(I314
I433
tp150
a(I399
I542
tp151
a(I500
I450
tp152
as(g24
g45
tp153
(lp154
(I500
I450
tp155
a(I465
I428
tp156
a(I436
I387
tp157
a(I403
I345
tp158
a(I400
I300
tp159
as(g15
g24
tp160
g146
s(g1
g15
tp161
g17
s(g15
g23
tp162
(lp163
(I150
I0
tp164
a(I186
I34
tp165
a(I227
I73
tp166
a(I225
I111
tp167
a(I200
I150
tp168
as(g87
g1
tp169
g135
s(g45
g2
tp170
g75
s(g1
g45
tp171
(lp172
(I100
I450
tp173
a(I135
I479
tp174
a(I180
I484
tp175
a(I236
I495
tp176
a(I257
I481
tp177
a(I307
I445
tp178
a(I365
I422
tp179
a(I381
I385
tp180
a(I395
I338
tp181
a(I400
I300
tp182
as(g24
g1
tp183
(lp184
(I500
I450
tp185
a(I491
I506
tp186
a(I421
I485
tp187
a(I390
I483
tp188
a(I316
I472
tp189
a(I260
I480
tp190
a(I207
I464
tp191
a(I135
I455
tp192
a(I100
I450
tp193
as(g23
g15
tp194
g163
s(g2
g15
tp195
g81
s(g45
g1
tp196
g172
s(g24
g87
tp197
(lp198
(I400
I0
tp199
a(I420
I41
tp200
a(I467
I105
tp201
a(I499
I166
tp202
a(I541
I227
tp203
a(I538
I310
tp204
a(I531
I398
tp205
a(I500
I450
tp206
as(g87
g15
tp207
g96
s(g1
g24
tp208
g184
s(g45
g24
tp209
g154
s(g87
g24
tp210
g198
s(g24
g2
tp211
g129
s(g2
g1
tp212
g4
s(g1
g23
tp213
g106
s(g23
g45
tp214
g64
s(g45
g87
tp215
g117
s(g23
g2
tp216
g54
s.