(dp0
(S'Director'
p1
S'Accounts-Priority'
p2
tp3
(lp4
(I50
I25
tp5
a(I44
I40
tp6
a(I35
I70
tp7
as(g2
S'Accounts-Student'
p8
tp9
(lp10
(I35
I70
tp11
a(I30
I89
tp12
a(I31
I100
tp13
a(I35
I118
tp14
a(I35
I130
tp15
as(S'Dean-Affairs'
p16
S'Exam-Cell'
p17
tp18
(lp19
(I170
I100
tp20
a(I157
I104
tp21
a(I147
I97
tp22
a(I139
I96
tp23
a(I134
I88
tp24
a(I128
I82
tp25
a(I119
I82
tp26
a(I107
I82
tp27
a(I104
I87
tp28
a(I100
I100
tp29
as(S'Reception'
p30
g1
tp31
(lp32
(I50
I25
tp33
a(I53
I44
tp34
a(I43
I55
tp35
a(I50
I84
tp36
a(I45
I96
tp37
a(I48
I117
tp38
a(I49
I146
tp39
a(I50
I175
tp40
as(g17
S'Entry'
p41
tp42
(lp43
(I15
I200
tp44
a(I23
I199
tp45
a(I30
I189
tp46
a(I35
I180
tp47
a(I40
I170
tp48
a(I43
I159
tp49
a(I51
I152
tp50
a(I55
I146
tp51
a(I66
I143
tp52
a(I72
I134
tp53
a(I79
I134
tp54
a(I84
I124
tp55
a(I94
I118
tp56
a(I103
I123
tp57
a(I110
I118
tp58
a(I120
I112
tp59
a(I120
I104
tp60
a(I112
I101
tp61
a(I100
I100
tp62
as(g30
S'Exit1'
p63
tp64
(lp65
(I185
I0
tp66
a(I176
I14
tp67
a(I172
I25
tp68
a(I171
I42
tp69
a(I160
I56
tp70
a(I156
I61
tp71
a(I149
I80
tp72
a(I142
I91
tp73
a(I129
I106
tp74
a(I120
I125
tp75
a(I105
I137
tp76
a(I89
I141
tp77
a(I76
I150
tp78
a(I60
I161
tp79
a(I50
I175
tp80
as(S'Dean-Academics'
p81
g1
tp82
(lp83
(I50
I25
tp84
a(I59
I22
tp85
a(I75
I31
tp86
a(I88
I32
tp87
a(I100
I25
tp88
as(g8
g2
tp89
g10
s(g8
g63
tp90
(lp91
(I185
I0
tp92
a(I170
I2
tp93
a(I154
I8
tp94
a(I140
I20
tp95
a(I126
I30
tp96
a(I119
I44
tp97
a(I108
I50
tp98
a(I95
I61
tp99
a(I86
I66
tp100
a(I74
I80
tp101
a(I72
I83
tp102
a(I59
I95
tp103
a(I48
I109
tp104
a(I42
I124
tp105
a(I35
I130
tp106
as(S'Exit2'
p107
g30
tp108
(lp109
(I185
I200
tp110
a(I178
I193
tp111
a(I168
I185
tp112
a(I156
I182
tp113
a(I144
I179
tp114
a(I137
I173
tp115
a(I128
I166
tp116
a(I118
I166
tp117
a(I115
I172
tp118
a(I108
I182
tp119
a(I97
I183
tp120
a(I94
I182
tp121
a(I82
I182
tp122
a(I73
I184
tp123
a(I67
I183
tp124
a(I59
I181
tp125
a(I50
I175
tp126
as(g63
g1
tp127
(lp128
(I185
I0
tp129
a(I187
I9
tp130
a(I185
I15
tp131
a(I178
I20
tp132
a(I168
I20
tp133
a(I159
I23
tp134
a(I151
I29
tp135
a(I148
I32
tp136
a(I140
I37
tp137
a(I136
I40
tp138
a(I127
I45
tp139
a(I118
I52
tp140
a(I107
I55
tp141
a(I98
I56
tp142
a(I90
I49
tp143
a(I78
I45
tp144
a(I76
I40
tp145
a(I67
I34
tp146
a(I61
I29
tp147
a(I50
I25
tp148
as(g30
g8
tp149
(lp150
(I50
I175
tp151
a(I50
I162
tp152
a(I51
I147
tp153
a(I47
I132
tp154
a(I35
I130
tp155
as(g16
S'Bank'
p156
tp157
(lp158
(I150
I50
tp159
a(I140
I66
tp160
a(I157
I71
tp161
a(I163
I74
tp162
a(I177
I85
tp163
a(I170
I100
tp164
as(g1
S'COW'
p165
tp166
(lp167
(I50
I25
tp168
a(I62
I57
tp169
a(I73
I73
tp170
a(I75
I108
tp171
a(I87
I130
tp172
a(I101
I128
tp173
a(I121
I145
tp174
a(I137
I162
tp175
a(I150
I175
tp176
as(g165
g81
tp177
(lp178
(I150
I175
tp179
a(I136
I176
tp180
a(I135
I173
tp181
a(I124
I163
tp182
a(I115
I154
tp183
a(I111
I150
tp184
a(I100
I141
tp185
a(I91
I132
tp186
a(I78
I126
tp187
a(I77
I112
tp188
a(I74
I101
tp189
a(I71
I91
tp190
a(I68
I79
tp191
a(I78
I70
tp192
a(I84
I64
tp193
a(I91
I57
tp194
a(I90
I48
tp195
a(I102
I39
tp196
a(I100
I25
tp197
as(g165
g107
tp198
(lp199
(I185
I200
tp200
a(I181
I194
tp201
a(I173
I184
tp202
a(I164
I179
tp203
a(I150
I175
tp204
as(g2
g63
tp205
(lp206
(I185
I0
tp207
a(I179
I6
tp208
a(I171
I9
tp209
a(I158
I14
tp210
a(I151
I17
tp211
a(I144
I28
tp212
a(I135
I37
tp213
a(I121
I43
tp214
a(I110
I48
tp215
a(I102
I57
tp216
a(I96
I55
tp217
a(I81
I52
tp218
a(I66
I51
tp219
a(I54
I60
tp220
a(I42
I66
tp221
a(I35
I70
tp222
as(g8
g107
tp223
(lp224
(I185
I200
tp225
a(I170
I196
tp226
a(I162
I198
tp227
a(I148
I191
tp228
a(I133
I193
tp229
a(I120
I195
tp230
a(I111
I195
tp231
a(I101
I185
tp232
a(I88
I179
tp233
a(I76
I170
tp234
a(I66
I159
tp235
a(I61
I153
tp236
a(I48
I149
tp237
a(I44
I136
tp238
a(I35
I130
tp239
as(g107
g165
tp240
g199
s(g81
g30
tp241
(lp242
(I100
I25
tp243
a(I93
I38
tp244
a(I82
I46
tp245
a(I75
I53
tp246
a(I70
I56
tp247
a(I70
I69
tp248
a(I70
I83
tp249
a(I69
I86
tp250
a(I67
I100
tp251
a(I67
I115
tp252
a(I64
I122
tp253
a(I56
I133
tp254
a(I53
I141
tp255
a(I53
I152
tp256
a(I51
I162
tp257
a(I50
I175
tp258
as(g8
g30
tp259
g150
s(g30
g81
tp260
g242
s(g17
g16
tp261
g19
s(g30
g17
tp262
(lp263
(I100
I100
tp264
a(I94
I114
tp265
a(I90
I120
tp266
a(I81
I128
tp267
a(I76
I140
tp268
a(I67
I145
tp269
a(I66
I159
tp270
a(I52
I167
tp271
a(I50
I175
tp272
as(g156
g16
tp273
g158
s(g81
g156
tp274
(lp275
(I150
I50
tp276
a(I143
I49
tp277
a(I137
I33
tp278
a(I122
I29
tp279
a(I110
I26
tp280
a(I100
I25
tp281
as(g41
g30
tp282
(lp283
(I15
I200
tp284
a(I16
I185
tp285
a(I28
I175
tp286
a(I31
I174
tp287
a(I37
I172
tp288
a(I50
I175
tp289
as(g81
g41
tp290
(lp291
(I15
I200
tp292
a(I29
I192
tp293
a(I31
I184
tp294
a(I36
I168
tp295
a(I47
I153
tp296
a(I54
I140
tp297
a(I62
I123
tp298
a(I70
I107
tp299
a(I71
I91
tp300
a(I75
I80
tp301
a(I79
I68
tp302
a(I83
I55
tp303
a(I86
I41
tp304
a(I93
I33
tp305
a(I100
I25
tp306
as(g8
g165
tp307
(lp308
(I150
I175
tp309
a(I136
I172
tp310
a(I115
I169
tp311
a(I102
I165
tp312
a(I84
I154
tp313
a(I62
I146
tp314
a(I55
I140
tp315
a(I35
I130
tp316
as(g41
g156
tp317
(lp318
(I15
I200
tp319
a(I27
I191
tp320
a(I45
I185
tp321
a(I56
I181
tp322
a(I65
I176
tp323
a(I74
I171
tp324
a(I88
I158
tp325
a(I93
I140
tp326
a(I108
I139
tp327
a(I122
I126
tp328
a(I125
I109
tp329
a(I132
I92
tp330
a(I138
I80
tp331
a(I148
I70
tp332
a(I151
I57
tp333
a(I150
I50
tp334
as(g2
g81
tp335
(lp336
(I35
I70
tp337
a(I50
I70
tp338
a(I66
I63
tp339
a(I77
I50
tp340
a(I94
I30
tp341
a(I100
I25
tp342
as(g1
g8
tp343
(lp344
(I50
I25
tp345
a(I56
I42
tp346
a(I57
I56
tp347
a(I47
I63
tp348
a(I52
I82
tp349
a(I47
I100
tp350
a(I45
I114
tp351
a(I35
I130
tp352
as(g16
g107
tp353
(lp354
(I185
I200
tp355
a(I181
I184
tp356
a(I178
I165
tp357
a(I180
I160
tp358
a(I183
I142
tp359
a(I178
I127
tp360
a(I173
I115
tp361
a(I170
I100
tp362
as(g30
g2
tp363
(lp364
(I35
I70
tp365
a(I39
I92
tp366
a(I47
I120
tp367
a(I46
I139
tp368
a(I50
I175
tp369
as(g107
g1
tp370
(lp371
(I185
I200
tp372
a(I173
I191
tp373
a(I164
I184
tp374
a(I154
I171
tp375
a(I147
I166
tp376
a(I131
I159
tp377
a(I116
I147
tp378
a(I111
I143
tp379
a(I98
I134
tp380
a(I85
I125
tp381
a(I81
I118
tp382
a(I70
I99
tp383
a(I67
I91
tp384
a(I54
I74
tp385
a(I55
I54
tp386
a(I55
I41
tp387
a(I50
I25
tp388
as(g2
g30
tp389
g364
s(g107
g156
tp390
(lp391
(I185
I200
tp392
a(I193
I188
tp393
a(I182
I178
tp394
a(I176
I165
tp395
a(I173
I156
tp396
a(I162
I150
tp397
a(I158
I140
tp398
a(I149
I128
tp399
a(I142
I118
tp400
a(I143
I104
tp401
a(I143
I97
tp402
a(I146
I85
tp403
a(I148
I73
tp404
a(I148
I61
tp405
a(I150
I50
tp406
as(g156
g2
tp407
(lp408
(I35
I70
tp409
a(I56
I71
tp410
a(I76
I71
tp411
a(I91
I71
tp412
a(I104
I61
tp413
a(I116
I45
tp414
a(I130
I44
tp415
a(I150
I50
tp416
as(g156
g63
tp417
(lp418
(I185
I0
tp419
a(I178
I4
tp420
a(I169
I6
tp421
a(I163
I10
tp422
a(I160
I16
tp423
a(I156
I27
tp424
a(I151
I34
tp425
a(I148
I43
tp426
a(I150
I50
tp427
as(g2
g41
tp428
(lp429
(I15
I200
tp430
a(I10
I189
tp431
a(I12
I177
tp432
a(I8
I165
tp433
a(I9
I160
tp434
a(I12
I152
tp435
a(I15
I144
tp436
a(I19
I136
tp437
a(I25
I129
tp438
a(I23
I119
tp439
a(I12
I118
tp440
a(I4
I111
tp441
a(I7
I100
tp442
a(I9
I92
tp443
a(I15
I82
tp444
a(I23
I74
tp445
a(I35
I70
tp446
as(g17
g30
tp447
g263
s(g41
g81
tp448
g291
s(g81
g17
tp449
(lp450
(I100
I100
tp451
a(I98
I87
tp452
a(I101
I80
tp453
a(I101
I66
tp454
a(I95
I58
tp455
a(I95
I53
tp456
a(I90
I41
tp457
a(I94
I29
tp458
a(I100
I25
tp459
as(g16
g8
tp460
(lp461
(I170
I100
tp462
a(I161
I104
tp463
a(I140
I111
tp464
a(I135
I113
tp465
a(I117
I125
tp466
a(I104
I135
tp467
a(I86
I128
tp468
a(I62
I128
tp469
a(I41
I129
tp470
a(I35
I130
tp471
as(g2
g165
tp472
(lp473
(I35
I70
tp474
a(I44
I94
tp475
a(I61
I103
tp476
a(I79
I114
tp477
a(I88
I129
tp478
a(I116
I131
tp479
a(I122
I139
tp480
a(I143
I154
tp481
a(I150
I175
tp482
as(g165
g17
tp483
(lp484
(I150
I175
tp485
a(I146
I168
tp486
a(I138
I153
tp487
a(I134
I137
tp488
a(I125
I125
tp489
a(I113
I117
tp490
a(I102
I108
tp491
a(I100
I100
tp492
as(g16
g1
tp493
(lp494
(I50
I25
tp495
a(I68
I48
tp496
a(I107
I36
tp497
a(I144
I67
tp498
a(I170
I100
tp499
as(g63
g16
tp500
(lp501
(I185
I0
tp502
a(I190
I8
tp503
a(I183
I25
tp504
a(I180
I43
tp505
a(I178
I50
tp506
a(I173
I68
tp507
a(I171
I74
tp508
a(I168
I90
tp509
a(I170
I100
tp510
as(g30
g107
tp511
g109
s(g8
g81
tp512
(lp513
(I100
I25
tp514
a(I90
I37
tp515
a(I83
I51
tp516
a(I77
I58
tp517
a(I68
I73
tp518
a(I58
I85
tp519
a(I43
I103
tp520
a(I40
I112
tp521
a(I35
I130
tp522
as(g63
g30
tp523
g65
s(g17
g156
tp524
(lp525
(I150
I50
tp526
a(I137
I54
tp527
a(I136
I62
tp528
a(I133
I69
tp529
a(I129
I77
tp530
a(I126
I86
tp531
a(I115
I90
tp532
a(I110
I91
tp533
a(I100
I100
tp534
as(g165
g8
tp535
g308
s(g165
g41
tp536
(lp537
(I15
I200
tp538
a(I14
I188
tp539
a(I16
I176
tp540
a(I22
I166
tp541
a(I33
I160
tp542
a(I42
I164
tp543
a(I46
I163
tp544
a(I55
I165
tp545
a(I65
I165
tp546
a(I75
I164
tp547
a(I82
I168
tp548
a(I88
I168
tp549
a(I96
I170
tp550
a(I107
I176
tp551
a(I112
I180
tp552
a(I120
I183
tp553
a(I130
I179
tp554
a(I140
I176
tp555
a(I150
I175
tp556
as(g81
g8
tp557
g513
s(g1
g107
tp558
g371
s(g8
g156
tp559
(lp560
(I150
I50
tp561
a(I133
I42
tp562
a(I112
I60
tp563
a(I92
I68
tp564
a(I80
I82
tp565
a(I65
I98
tp566
a(I53
I110
tp567
a(I35
I130
tp568
as(g81
g16
tp569
(lp570
(I170
I100
tp571
a(I158
I92
tp572
a(I149
I78
tp573
a(I144
I66
tp574
a(I133
I57
tp575
a(I118
I46
tp576
a(I108
I31
tp577
a(I100
I25
tp578
as(g8
g41
tp579
(lp580
(I15
I200
tp581
a(I17
I197
tp582
a(I22
I187
tp583
a(I28
I175
tp584
a(I29
I162
tp585
a(I32
I155
tp586
a(I39
I143
tp587
a(I35
I130
tp588
as(g165
g16
tp589
(lp590
(I170
I100
tp591
a(I166
I91
tp592
a(I165
I78
tp593
a(I162
I66
tp594
a(I162
I53
tp595
a(I166
I41
tp596
a(I154
I36
tp597
a(I145
I37
tp598
a(I138
I26
tp599
a(I136
I17
tp600
a(I125
I11
tp601
a(I123
I24
tp602
a(I123
I29
tp603
a(I113
I35
tp604
a(I108
I45
tp605
a(I95
I42
tp606
a(I84
I43
tp607
a(I72
I48
tp608
a(I68
I61
tp609
a(I67
I64
tp610
a(I58
I73
tp611
a(I45
I78
tp612
a(I40
I85
tp613
a(I38
I92
tp614
a(I36
I101
tp615
a(I39
I113
tp616
a(I48
I119
tp617
a(I60
I117
tp618
a(I71
I120
tp619
a(I82
I128
tp620
a(I85
I127
tp621
a(I98
I132
tp622
a(I109
I134
tp623
a(I116
I131
tp624
a(I122
I128
tp625
a(I132
I126
tp626
a(I144
I126
tp627
a(I148
I132
tp628
a(I155
I135
tp629
a(I160
I147
tp630
a(I162
I155
tp631
a(I154
I165
tp632
a(I150
I175
tp633
as(g107
g81
tp634
(lp635
(I185
I200
tp636
a(I176
I191
tp637
a(I174
I183
tp638
a(I168
I167
tp639
a(I165
I149
tp640
a(I160
I131
tp641
a(I160
I124
tp642
a(I154
I111
tp643
a(I150
I97
tp644
a(I144
I86
tp645
a(I137
I70
tp646
a(I128
I54
tp647
a(I121
I44
tp648
a(I111
I37
tp649
a(I100
I25
tp650
as(g2
g1
tp651
g4
s(g41
g8
tp652
g580
s(g165
g63
tp653
(lp654
(I185
I0
tp655
a(I181
I8
tp656
a(I179
I23
tp657
a(I180
I32
tp658
a(I170
I40
tp659
a(I168
I56
tp660
a(I165
I65
tp661
a(I162
I78
tp662
a(I157
I84
tp663
a(I153
I96
tp664
a(I152
I102
tp665
a(I157
I118
tp666
a(I159
I130
tp667
a(I159
I146
tp668
a(I157
I162
tp669
a(I150
I175
tp670
as(g1
g81
tp671
g83
s(g1
g156
tp672
(lp673
(I50
I25
tp674
a(I73
I38
tp675
a(I92
I44
tp676
a(I121
I42
tp677
a(I150
I50
tp678
as(g30
g16
tp679
(lp680
(I170
I100
tp681
a(I164
I106
tp682
a(I143
I115
tp683
a(I124
I127
tp684
a(I99
I134
tp685
a(I77
I141
tp686
a(I59
I159
tp687
a(I50
I175
tp688
as(g1
g30
tp689
g32
s(g107
g8
tp690
g224
s(g63
g2
tp691
g206
s(g156
g1
tp692
g673
s(g1
g41
tp693
(lp694
(I15
I200
tp695
a(I20
I191
tp696
a(I28
I182
tp697
a(I36
I173
tp698
a(I47
I166
tp699
a(I52
I162
tp700
a(I64
I150
tp701
a(I56
I136
tp702
a(I57
I120
tp703
a(I57
I104
tp704
a(I56
I88
tp705
a(I54
I73
tp706
a(I55
I69
tp707
a(I54
I53
tp708
a(I57
I38
tp709
a(I50
I25
tp710
as(g156
g30
tp711
(lp712
(I150
I50
tp713
a(I148
I59
tp714
a(I148
I70
tp715
a(I147
I81
tp716
a(I147
I92
tp717
a(I144
I105
tp718
a(I138
I116
tp719
a(I133
I123
tp720
a(I126
I132
tp721
a(I113
I138
tp722
a(I116
I150
tp723
a(I115
I156
tp724
a(I114
I169
tp725
a(I101
I173
tp726
a(I92
I164
tp727
a(I86
I165
tp728
a(I72
I171
tp729
a(I60
I178
tp730
a(I50
I175
tp731
as(g8
g17
tp732
(lp733
(I100
I100
tp734
a(I89
I107
tp735
a(I83
I117
tp736
a(I72
I123
tp737
a(I66
I125
tp738
a(I55
I126
tp739
a(I48
I127
tp740
a(I35
I130
tp741
as(g165
g2
tp742
g473
s(g41
g1
tp743
g694
s(g2
g16
tp744
(lp745
(I35
I70
tp746
a(I49
I82
tp747
a(I73
I73
tp748
a(I98
I73
tp749
a(I122
I80
tp750
a(I143
I88
tp751
a(I163
I97
tp752
a(I170
I100
tp753
as(g16
g2
tp754
g745
s(g156
g107
tp755
g391
s(g156
g81
tp756
g275
s(g41
g165
tp757
g537
s(g165
g156
tp758
(lp759
(I150
I50
tp760
a(I154
I64
tp761
a(I150
I84
tp762
a(I144
I104
tp763
a(I142
I109
tp764
a(I142
I128
tp765
a(I152
I147
tp766
a(I151
I168
tp767
a(I150
I175
tp768
as(g17
g63
tp769
(lp770
(I185
I0
tp771
a(I169
I12
tp772
a(I155
I32
tp773
a(I140
I45
tp774
a(I129
I61
tp775
a(I114
I79
tp776
a(I100
I100
tp777
as(g17
g1
tp778
(lp779
(I50
I25
tp780
a(I44
I45
tp781
a(I26
I63
tp782
a(I20
I96
tp783
a(I38
I104
tp784
a(I64
I119
tp785
a(I91
I112
tp786
a(I100
I100
tp787
as(g17
g2
tp788
(lp789
(I35
I70
tp790
a(I56
I80
tp791
a(I77
I88
tp792
a(I100
I100
tp793
as(g156
g41
tp794
g318
s(g81
g107
tp795
g635
s(g81
g165
tp796
g178
s(g2
g17
tp797
g789
s(g17
g81
tp798
g450
s(g16
g81
tp799
g570
s(g63
g17
tp800
g770
s(g63
g81
tp801
(lp802
(I185
I0
tp803
a(I175
I8
tp804
a(I165
I16
tp805
a(I156
I23
tp806
a(I152
I38
tp807
a(I138
I40
tp808
a(I133
I37
tp809
a(I120
I30
tp810
a(I105
I27
tp811
a(I100
I25
tp812
as(g81
g63
tp813
g802
s(g2
g156
tp814
g408
s(g156
g8
tp815
g560
s(g16
g63
tp816
g501
s(g107
g17
tp817
(lp818
(I185
I200
tp819
a(I185
I188
tp820
a(I183
I184
tp821
a(I184
I172
tp822
a(I172
I170
tp823
a(I162
I162
tp824
a(I153
I153
tp825
a(I151
I149
tp826
a(I148
I138
tp827
a(I142
I134
tp828
a(I138
I128
tp829
a(I131
I124
tp830
a(I120
I122
tp831
a(I119
I117
tp832
a(I109
I109
tp833
a(I100
I100
tp834
as(g16
g41
tp835
(lp836
(I15
I200
tp837
a(I25
I192
tp838
a(I41
I186
tp839
a(I56
I182
tp840
a(I67
I171
tp841
a(I74
I165
tp842
a(I83
I157
tp843
a(I87
I151
tp844
a(I99
I141
tp845
a(I113
I134
tp846
a(I127
I136
tp847
a(I136
I130
tp848
a(I150
I122
tp849
a(I153
I121
tp850
a(I167
I114
tp851
a(I170
I100
tp852
as(g17
g8
tp853
g733
s(g8
g1
tp854
g344
s(g30
g165
tp855
(lp856
(I150
I175
tp857
a(I140
I178
tp858
a(I128
I180
tp859
a(I112
I182
tp860
a(I93
I180
tp861
a(I86
I180
tp862
a(I72
I180
tp863
a(I56
I178
tp864
a(I50
I175
tp865
as(g16
g30
tp866
g680
s(g41
g17
tp867
g43
s(g156
g17
tp868
g525
s(g165
g1
tp869
g167
s(g30
g156
tp870
g712
s(g41
g2
tp871
g429
s(g1
g16
tp872
g494
s(g63
g165
tp873
g654
s(g17
g107
tp874
g818
s(g1
g63
tp875
g128
s(g16
g165
tp876
g590
s(g41
g16
tp877
g836
s(g17
g165
tp878
g484
s(g81
g2
tp879
g336
s(g63
g8
tp880
g91
s(g30
g41
tp881
g283
s(g63
g156
tp882
g418
s(g107
g16
tp883
g354
s(g107
g2
tp884
(lp885
(I185
I200
tp886
a(I181
I186
tp887
a(I175
I171
tp888
a(I168
I161
tp889
a(I156
I151
tp890
a(I143
I149
tp891
a(I127
I149
tp892
a(I114
I145
tp893
a(I100
I133
tp894
a(I85
I122
tp895
a(I73
I109
tp896
a(I62
I99
tp897
a(I50
I88
tp898
a(I42
I79
tp899
a(I35
I70
tp900
as(g2
g107
tp901
g885
s(g8
g16
tp902
g461
s(g165
g30
tp903
g856
s(g1
g17
tp904
g779
s(g156
g165
tp905
g759
s.