(dp0
S'P2'
p1
(I300
I250
I20
tp2
sS'P3'
p3
(I300
I350
I20
tp4
sS'P1'
p5
(I300
I150
I20
tp6
sS'W3'
p7
(I250
I70
I30
tp8
sS'W2'
p9
(I350
I430
I30
tp10
sS'W1'
p11
(I250
I430
I30
tp12
sS'W4'
p13
(I350
I70
I30
tp14
s.