(dp0
S'Accounts-Priority'
p1
(I35
I70
I10
tp2
sS'Dean-Affairs'
p3
(I170
I100
I15
tp4
sS'COW'
p5
(I150
I175
I5
tp6
sS'Exam-Cell'
p7
(I100
I100
I25
tp8
sS'Dean-Academics'
p9
(I100
I25
I10
tp10
sS'Director'
p11
(I50
I25
I5
tp12
sS'Pillar2'
p13
(I100
I50
I5
tp14
sS'Pillar1'
p15
(I100
I150
I5
tp16
sS'Accounts-Student'
p17
(I35
I130
I10
tp18
sS'Reception'
p19
(I50
I175
I5
tp20
sS'Bank'
p21
(I150
I50
I10
tp22
s.