(dp0
I1
(F0.11599993705749512
F436.4104491609467
F1.4979763701176614
F291.3333333333342
tp1
sI2
(F0.3400001525878906
F499.0513696261777
F1.4354305933638671
F347.66666666667123
tp2
sI3
(F0.564000129699707
F483.0821807489365
F1.425021182150191
F339.00000000001523
tp3
sI4
(F0.7290000915527344
F378.0641494943386
F1.455025591382898
F259.83333333334406
tp4
sI5
(F1.2999999523162842
F417.9580514512456
F1.44923041418606
F288.39999999999026
tp5
sI6
(F1.619999885559082
F473.21930499674346
F1.3816622043701772
F342.4999999999695
tp6
sI7
(F1.627000093460083
F376.68311286990877
F1.456517284159209
F258.6190476190287
tp7
sI8
(F2.2119998931884766
F442.60043862890024
F1.447589333209816
F305.7499999999993
tp8
sI9
(F2.8480000495910645
F444.5398643264701
F1.442790760525793
F308.111111111127
tp9
sI10
(F3.324000120162964
F399.53819701816025
F1.4318654773078674
F279.0333333333484
tp10
sI11
(F3.9250001907348633
F445.3981523570255
F1.4026280205916462
F317.5454545454973
tp11
sI12
(F4.341000080108643
F402.8808332047874
F1.4427245593723852
F279.2500000000338
tp12
sI13
(F5.119999885559082
F453.6604192792583
F1.4329599377895803
F316.5897435897995
tp13
sI14
(F7.668999910354614
F505.3599229360417
F1.4269945383430092
F354.1428571428543
tp14
sI15
(F6.434999942779541
F427.73640615232745
F1.403334665853997
F304.8000000000208
tp15
sI16
(F8.848000049591064
F441.2833948605294
F1.423303517894476
F310.04166666666407
tp16
sI17
(F8.253000020980835
F418.4879750411929
F1.4073779576064211
F297.3529411764631
tp17
sI18
(F10.41700005531311
F458.3082708498526
F1.431467790265218
F320.1666666666238
tp18
sI19
(F11.592000007629395
F491.959679154234
F1.4576961954461347
F337.4912280701038
tp19
sI20
(F13.11299991607666
F486.36443435507573
F1.4225341747739109
F341.89999999991255
tp20
sI21
(F12.776000022888184
F452.54685748081766
F1.4121075790638191
F320.47619047611187
tp21
sI22
(F13.42900013923645
F390.5724616783032
F1.3888143133868236
F281.22727272722017
tp22
sI23
(F13.489000082015991
F400.13133864459445
F1.4173029962260328
F282.3188405796477
tp23
sI24
(F17.91700005531311
F465.585886389436
F1.3731284078176162
F339.0694444443223
tp24
sI25
(F14.049000024795532
F375.80847966902604
F1.4019217097828296
F268.0666666666017
tp25
sI26
(F18.42900013923645
F445.4048540390521
F1.413580934005725
F315.08974358962894
tp26
sI27
(F20.485000133514404
F433.69091222925346
F1.4066214419228436
F308.3209876542195
tp27
sI28
(F19.293999910354614
F410.5545613025837
F1.4135004159943207
F290.4523809522764
tp28
sI29
(F23.500999927520752
F448.9398922945452
F1.4253620403485459
F314.9655172413356
tp29
sI30
(F28.058000087738037
F501.74309301742954
F1.4268026911296743
F351.6555555555991
tp30
sI31
(F23.121999979019165
F407.9746498035525
F1.4137283863081156
F288.5806451612384
tp31
sI32
(F27.35800004005432
F456.4409542347189
F1.4214270479297229
F321.1145833333586
tp32
sI33
(F34.13100004196167
F467.97994817214226
F1.4170366988540704
F330.25252525258406
tp33
sI34
(F29.846999883651733
F441.4147227298717
F1.4210870725133748
F310.6176470588626
tp34
sI35
(F31.736000061035156
F426.6447229053176
F1.4331135322644277
F297.7047619047925
tp35
sI36
(F39.53000020980835
F500.2573600256485
F1.4166394379030824
F353.12962962977525
tp36
sI37
(F43.223000049591064
F473.4717549113791
F1.4286395953772832
F331.41441441453395
tp37
sI38
(F42.776999950408936
F449.3398363834774
F1.4113442994268897
F318.3771929825647
tp38
sI39
(F51.73099994659424
F501.1358013428418
F1.3818734093113356
F362.6495726497738
tp39
sI40
(F48.94999980926514
F467.6854443934632
F1.4174075849776369
F329.95833333348645
tp40
sI41
(F46.23900008201599
F462.82728379365057
F1.435937846048493
F322.3170731708818
tp41
sI42
(F50.96799993515015
F471.06769773271446
F1.4050404770923548
F335.2698412700253
tp42
sI43
(F53.76899981498718
F493.7592660707253
F1.4030959847361655
F351.9069767444103
tp43
sI44
(F51.854000091552734
F461.6814447820565
F1.3877567680283065
F332.6818181820169
tp44
sI45
(F54.82499980926514
F453.9150567714697
F1.4051486508624704
F323.03703703722726
tp45
sI46
(F61.10799980163574
F493.54485274856114
F1.4182028043571813
F348.0072463770559
tp46
sI47
(F58.895999908447266
F464.56841426755506
F1.3929643043419637
F333.5106382980985
tp47
sI48
(F63.121999979019165
F463.54141522718027
F1.4096843528683272
F328.82638888911447
tp48
sI49
(F62.58899998664856
F461.13866656709837
F1.3934259164881373
F330.93877551044113
tp49
sI50
(F76.07100009918213
F519.3556932583929
F1.3901383652523922
F373.6000000000713
tp50
sI51
(F70.20099997520447
F465.7462211910939
F1.389690735460312
F335.1437908498564
tp51
sI52
(F73.5440001487732
F464.9391059728842
F1.3956493396396763
F333.1346153847789
tp52
sI53
(F79.13300013542175
F498.1399180724489
F1.3968263931980285
F356.6226415094861
tp53
sI54
(F76.47900009155273
F461.148701392324
F1.4053064263643102
F328.14814814827884
tp54
sI55
(F78.38199996948242
F448.76227364905577
F1.409617071561635
F318.357575757718
tp55
sI56
(F89.02199983596802
F482.28374065375823
F1.398502976212132
F344.85714285716546
tp56
sI57
(F95.88900017738342
F471.6407696392085
F1.4003294025123727
F336.8070175438891
tp57
sI58
(F98.72699999809265
F472.0701921646166
F1.3952576554949423
F338.3390804597724
tp58
sI59
(F115.18800020217896
F522.0872449246981
F1.3905775777486589
F375.4463276834622
tp59
sI60
(F103.06300020217896
F468.62530962326144
F1.3953872679061476
F335.8388888888592
tp60
sI61
(F113.72699999809265
F491.6247855450735
F1.382645126785091
F355.56830601080793
tp61
sI62
(F105.91499996185303
F453.6983409716664
F1.4146225135067794
F320.7204301075137
tp62
sI63
(F119.87599992752075
F486.7592936330139
F1.3969707159164007
F348.4391534390211
tp63
sI64
(F123.59100008010864
F499.9277932171694
F1.4138271095983614
F353.5989583331645
tp64
sI65
(F115.33899998664856
F442.17800556106204
F1.4019594342458086
F315.3999999999529
tp65
sI66
(F132.60099983215332
F501.9015250686779
F1.3933303697777826
F360.2171717169449
tp66
sI67
(F126.2739999294281
F471.0507314784541
F1.4145033618263747
F333.0149253729903
tp67
sI68
(F134.83700013160706
F473.85270144092055
F1.403987612293187
F337.50490196060827
tp68
sI69
(F142.67200016975403
F481.6692218756318
F1.4037693965438116
F343.1256038645226
tp69
sI70
(F147.14900016784668
F485.9773125439878
F1.3796281837199071
F352.2523809521212
tp70
sI71
(F144.39399981498718
F472.2072265845265
F1.3910921989761362
F339.4507042251246
tp71
sI72
(F159.34599995613098
F494.7285982276765
F1.4152325212859993
F349.5740740737957
tp72
sI73
(F172.8989999294281
F518.7220063184905
F1.4004477407184956
F370.39726027360484
tp73
sI74
(F156.7610001564026
F462.70549389378306
F1.3948267291903516
F331.7297297294894
tp74
sI75
(F178.34599995613098
F523.2497934787954
F1.4108331359991195
F370.87999999960437
tp75
sI76
(F164.39199995994568
F462.73075046146397
F1.3793354657632784
F335.473684210247
tp76
sI77
(F168.12000012397766
F558.0558191287039
F1.2186237447897472
F457.93939393901024
tp77
sI78
(F171.45099997520447
F471.277892803882
F1.4002619091397372
F336.56410256379513
tp78
sI79
(F174.76500010490417
F457.0124703914807
F1.4033318064169606
F325.6624472571046
tp79
s.