(dp0
I1
(F0.6549999713897705
F2004.9333271391815
F1.2465906697239104
F1608.3333333332469
tp1
sI2
(F1.6299998760223389
F1800.4962789791725
F1.3517239331674995
F1332.0000000000468
tp2
sI3
(F2.135999917984009
F1539.0591017923896
F1.3450701025567797
F1144.22222222237
tp3
sI4
(F3.0910000801086426
F1367.7869171432426
F1.3841662173820282
F988.1666666668366
tp4
sI5
(F4.144000053405762
F1399.1905408111459
F1.3815981905185801
F1012.7333333333063
tp5
sI6
(F7.3450000286102295
F1688.0308161908779
F1.3463556669374948
F1253.7777777773824
tp6
sI7
(F7.163000106811523
F1271.1658349852676
F1.411435654560142
F900.6190476188671
tp7
sI8
(F10.46399998664856
F1537.1533738879275
F1.347198399551396
F1140.9999999998402
tp8
sI9
(F15.506999969482422
F1695.3528476158556
F1.346666084717045
F1258.925925926229
tp9
sI10
(F16.085999965667725
F1574.1804687946512
F1.3636745708708033
F1154.3666666669783
tp10
sI11
(F16.552000045776367
F1424.77583706965
F1.3833589097118728
F1029.9393939396416
tp11
sI12
(F22.19600009918213
F1486.970010744182
F1.3758332576017012
F1080.7777777782535
tp12
sI13
(F25.542999982833862
F1537.2945224933324
F1.355884173350302
F1133.7948717955585
tp13
sI14
(F31.1969997882843
F1622.6992101794783
F1.3501063159171225
F1201.9047619054982
tp14
sI15
(F35.56099987030029
F1654.3976188522158
F1.3309477411387116
F1243.0222222224684
tp15
sI16
(F32.29099988937378
F1426.7097799057904
F1.3832805347815513
F1031.3958333340513
tp16
sI17
(F40.88599991798401
F1534.1603080380346
F1.3551244537381557
F1132.117647058912
tp17
sI18
(F44.55400013923645
F1507.6149911775888
F1.3715519572012007
F1099.2037037036782
tp18
sI19
(F52.168999910354614
F1580.7449210030886
F1.369379927918934
F1154.3508771925474
tp19
sI20
(F59.66000008583069
F1636.6067836159677
F1.3429303075317234
F1218.683333332476
tp20
sI21
(F61.33800005912781
F1557.777009816683
F1.3702295578028574
F1136.8730158722858
tp21
sI22
(F70.33800005912781
F1628.4324342072614
F1.3578842786832457
F1199.2424242413124
tp22
sI23
(F67.38100004196167
F1431.0955012436334
F1.3789935283683725
F1037.7826086949865
tp23
sI24
(F84.72800016403198
F1614.1872880413055
F1.3468864483202703
F1198.4583333319536
tp24
sI25
(F90.74399995803833
F1595.6319111961318
F1.353086623624609
F1179.253333331904
tp25
sI26
(F94.79100012779236
F1565.9743733426762
F1.3634496586618505
F1148.538461537034
tp26
sI27
(F106.36699986457825
F1698.4608617011847
F1.3390369060164713
F1268.4197530850522
tp27
sI28
(F99.23499989509583
F1459.2403383376054
F1.3832754609426152
F1054.9166666653832
tp28
sI29
(F115.55700016021729
F1570.858325551186
F1.3571871488040728
F1157.436781607751
tp29
sI30
(F113.97499990463257
F1456.7124626651068
F1.3828965195565572
F1053.3777777763296
tp30
sI31
(F144.77800011634827
F1708.776699143445
F1.3470102903137076
F1268.5698924731191
tp31
sI32
(F152.59899997711182
F1729.0434858584715
F1.3366955067914836
F1293.5208333338041
tp32
sI33
(F167.17499995231628
F1757.4359920077234
F1.3335849707480423
F1317.8282828292015
tp33
sI34
(F152.54199981689453
F1635.4070881372443
F1.3532317370137399
F1208.5196078435156
tp34
sI35
(F175.47100019454956
F1838.8936412752469
F1.3243424533844053
F1388.533333335262
tp35
sI36
(F163.59500002861023
F1648.3242461660452
F1.3558292034653832
F1215.7314814823796
tp36
sI37
(F174.5349998474121
F1690.3869497038402
F1.3519392989085617
F1250.3423423437073
tp37
sI38
(F177.8710000514984
F1623.337735877
F1.3436860279815344
F1208.1228070188051
tp38
sI39
(F199.5829999446869
F1698.4602960342036
F1.3516150739723858
F1256.6153846171917
tp39
sI40
(F206.6119999885559
F1703.7894048715546
F1.3344041077696112
F1276.8166666688041
tp40
sI41
(F217.46599984169006
F1680.9624761538182
F1.3473551501519776
F1247.6016260183594
tp41
sI42
(F215.47099995613098
F1595.5911840037643
F1.3608269369499824
F1172.5158730175922
tp42
sI43
(F247.56900000572205
F1640.649160303084
F1.3442648192903528
F1220.4806201572653
tp43
sI44
(F282.85599994659424
F1741.3138609189211
F1.3429940382166397
F1296.5909090938405
tp44
sI45
(F327.0499999523163
F1830.9204807144095
F1.3429588643198636
F1363.34814815171
tp45
sI46
(F299.8789999485016
F1778.0993098312006
F1.3435415158982316
F1323.442028988917
tp46
sI47
(F301.5499999523163
F1616.9519183163322
F1.362681372793698
F1186.5957446833972
tp47
sI48
(F334.2520000934601
F1687.840310739676
F1.354893942369571
F1245.7361111142145
tp48
sI49
(F363.15500020980835
F1840.0453682511993
F1.3424455507635862
F1370.666666670076
tp49
sI50
(F344.1710000038147
F1654.2544462063809
F1.3637636887421463
F1213.0066666697703
tp50
sI51
(F399.8269999027252
F1796.7548395748945
F1.3398749845463498
F1340.9869281075005
tp51
sI52
(F375.6529998779297
F1650.5578091743253
F1.3574668035474446
F1215.9102564136012
tp52
sI53
(F402.5279998779297
F1713.3820713911477
F1.3477514994955337
F1271.2893081791935
tp53
sI54
(F370.4609999656677
F1852.7723096816019
F1.3364908458820857
F1386.2962962973158
tp54
sI55
(F345.375
F1778.6871162598698
F1.3404433724567688
F1326.9393939408917
tp55
sI56
(F357.8880000114441
F1733.2760754751423
F1.3498596817129087
F1284.0416666684173
tp56
sI57
(F379.3680000305176
F1826.6012307626575
F1.3436726926483662
F1359.4093567254415
tp57
sI58
(F441.739000082016
F1920.7728057713748
F1.3313620104389552
F1442.7126436768979
tp58
sI59
(F405.9230000972748
F1755.8788709417743
F1.347759131287303
F1302.8135593224722
tp59
sI60
(F389.64400005340576
F1755.3538180087057
F1.3430975015581457
F1306.9444444444994
tp60
sI61
(F484.02300000190735
F2038.6502345094427
F1.324927171376192
F1538.6885245865337
tp61
sI62
(F488.7150001525879
F1832.6656222234385
F1.341444509422711
F1366.1881720415884
tp62
sI63
(F424.5420000553131
F1636.469169409961
F1.3690241455824723
F1195.3544973552678
tp63
sI64
(F488.32299995422363
F1810.6056660099227
F1.3430339813723826
F1348.1458333315966
tp64
sI65
(F516.6319999694824
F1866.3670779677464
F1.333529658226078
F1399.5692307664706
tp65
sI66
(F506.47900009155273
F1738.4846435067045
F1.3432659505132556
F1294.2222222207283
tp66
sI67
(F674.2170000076294
F2249.141300712577
F1.3266972697173085
F1695.2935323307195
tp67
sI68
(F575.4349999427795
F1975.4662970274067
F1.3382006946602854
F1476.2107843090732
tp68
sI69
(F685.0950000286102
F2174.4673374086287
F1.3201200675893534
F1647.1739130360943
tp69
sI70
(F626.2540001869202
F2021.4149022952704
F1.330545165131695
F1519.238095232336
tp70
sI71
(F580.3480000495911
F1764.2026701283687
F1.3448110366901926
F1311.8591549266057
tp71
sI72
(F668.2009999752045
F1950.8218407283057
F1.336984857692216
F1459.120370365032
tp72
sI73
(F821.5320000648499
F2194.7498728065634
F1.322102110155667
F1660.0456620919765
tp73
sI74
(F726.2200000286102
F1902.613532736082
F1.338085928749169
F1421.8918918866657
tp74
sI75
(F769.5139999389648
F1999.471339386182
F1.3306232257034034
F1502.65777777117
tp75
sI76
(F857.779000043869
F2103.677985127906
F1.3234439350571263
F1589.5482456059622
tp76
sI77
(F921.7009999752045
F2242.0335001138114
F1.3164028450677008
F1703.1515151416334
tp77
s.