(dp0
I1
(F0.15799999237060547
F381.42527670719943
F1.402298811423517
F272.000000000002
tp1
sI2
(F0.4530000686645508
F487.37960461166284
F1.429265702673482
F341.0000000000038
tp2
sI3
(F1.056999921798706
F671.9352766982801
F1.3647974475930382
F492.33333333331444
tp3
sI4
(F1.3389999866485596
F609.088080649028
F1.3756930110650942
F442.74999999996913
tp4
sI5
(F1.431999921798706
F485.2874137046504
F1.4181397244438385
F342.19999999997805
tp5
sI6
(F1.8400001525878906
F475.3193681901684
F1.4025817422006233
F338.8888888888584
tp6
sI7
(F2.3630001544952393
F484.75881309037396
F1.4072345970276392
F344.47619047618747
tp7
sI8
(F3.6489999294281006
F558.7777220058639
F1.394329936383792
F400.7500000000425
tp8
sI9
(F3.822999954223633
F521.4851551900186
F1.4057607018898575
F370.96296296300744
tp9
sI10
(F5.057999849319458
F464.174491383033
F1.427350834511013
F325.2000000000361
tp10
sI11
(F4.697000026702881
F432.343845630668
F1.4369369428754533
F300.87878787882306
tp11
sI12
(F6.384000062942505
F475.37670150718003
F1.4111949578836835
F336.86111111117117
tp12
sI13
(F8.230000019073486
F591.7373969726266
F1.3805789950906264
F428.61538461533866
tp13
sI14
(F8.777999877929688
F562.3797598764136
F1.3898175883973058
F404.6428571428084
tp14
sI15
(F11.072999954223633
F619.4540705987254
F1.3941201888946886
F444.33333333322724
tp15
sI16
(F9.831000089645386
F491.6388556927749
F1.424954113474763
F345.0208333332989
tp16
sI17
(F13.103000164031982
F586.0913117470517
F1.3760545483430793
F425.92156862732656
tp17
sI18
(F12.57800006866455
F499.55318916537897
F1.4084410909484735
F354.6851851851109
tp18
sI19
(F17.256999969482422
F618.5729452222886
F1.3897776065305822
F445.08771929811405
tp19
sI20
(F16.965999841690063
F564.5441988753262
F1.4022458988463147
F402.59999999985735
tp20
sI21
(F16.526999950408936
F508.1956798133756
F1.4078680721275627
F360.9682539681385
tp21
sI22
(F19.247999906539917
F574.9394668906249
F1.3853457272383827
F415.0151515150936
tp22
sI23
(F20.102999925613403
F536.4046440020746
F1.3986290456921309
F383.5217391303549
tp23
sI24
(F21.509999990463257
F554.5906582685654
F1.3873919389645428
F399.7361111110931
tp24
sI25
(F24.819000005722046
F575.8760331160009
F1.3974407895847698
F412.09333333336764
tp25
sI26
(F27.10599994659424
F545.6727163459194
F1.4068378354921587
F387.8717948718126
tp26
sI27
(F31.92899990081787
F614.753275754715
F1.384386981459468
F444.0617283952072
tp27
sI28
(F27.246999979019165
F526.4796396939232
F1.4107531496199053
F373.19047619051634
tp28
sI29
(F33.14900016784668
F582.7263118234097
F1.38350587077335
F421.1954022990001
tp29
sI30
(F33.49000000953674
F526.8370203302085
F1.4107507238830168
F373.4444444445277
tp30
sI31
(F36.61399984359741
F564.9176645850106
F1.4008463845559294
F403.2688172044578
tp31
sI32
(F37.782999992370605
F551.3255241086683
F1.3965342176419115
F394.7812500001593
tp32
sI33
(F36.4449999332428
F513.3173166600517
F1.4057263796112995
F365.1616161617385
tp33
sI34
(F45.67699980735779
F585.6221459923667
F1.3866027273424901
F422.34313725514426
tp34
sI35
(F43.0220000743866
F559.4532169651194
F1.3967374701311464
F400.5428571430748
tp35
sI36
(F55.105000019073486
F627.446167839438
F1.3882689938255044
F451.96296296328836
tp36
sI37
(F51.16199994087219
F593.8283953278768
F1.3873619136904898
F428.0270270273223
tp37
sI38
(F56.960999965667725
F609.4542172979609
F1.3875298218984797
F439.2368421055474
tp38
sI39
(F61.700000047683716
F615.4278632779594
F1.393205889818398
F441.73504273526964
tp39
sI40
(F56.50800013542175
F546.2053988437567
F1.403465544542137
F389.1833333335942
tp40
sI41
(F64.61099982261658
F589.5318042918715
F1.387691122744024
F424.82926829288186
tp41
sI42
(F64.03200006484985
F576.8910022929315
F1.3854356400121324
F416.39682539701346
tp42
sI43
(F74.8420000076294
F620.5638905822607
F1.3920279245514393
F445.7984496124446
tp43
sI44
(F72.14000010490417
F582.8762423974855
F1.3917418373903256
F418.8106060607079
tp44
sI45
(F76.81100010871887
F595.3787723779998
F1.3879251657029679
F428.97037037039917
tp45
sI46
(F79.08500003814697
F579.8130378139682
F1.3931746420754578
F416.18115942033063
tp46
sI47
(F87.85700011253357
F612.0003998074673
F1.3675878216880624
F447.5035460991845
tp47
sI48
(F93.7739999294281
F615.6887786038532
F1.3859277503709495
F444.24305555542946
tp48
sI49
(F92.25600004196167
F607.9380970529003
F1.3883530933648738
F437.8843537413632
tp49
sI50
(F97.83999991416931
F616.9705931849659
F1.3876565251871862
F444.6133333331463
tp50
sI51
(F95.28999996185303
F601.6544241002968
F1.3803137934830427
F435.88235294099314
tp51
sI52
(F108.52900004386902
F638.9354032134827
F1.3785014093072514
F463.49999999968924
tp52
sI53
(F105.20299983024597
F591.4976939406945
F1.3789846679171374
F428.937106918028
tp53
sI54
(F110.20099997520447
F600.5038477501525
F1.3850086609373915
F433.57407407382124
tp54
sI55
(F120.73800015449524
F632.8680381487484
F1.3759451100857552
F459.95151515114225
tp55
sI56
(F127.2739999294281
F648.6361974301273
F1.3774602599969947
F470.89285714242124
tp56
sI57
(F134.56699991226196
F662.447424603696
F1.3728731530850005
F482.526315788973
tp57
sI58
(F122.06200003623962
F584.642872553855
F1.3907508247127998
F420.3793103445314
tp58
sI59
(F149.12299990653992
F636.0757575027718
F1.3823489358229921
F460.1412429373914
tp59
sI60
(F140.27600002288818
F620.5854058521662
F1.3848231311799462
F448.13333333289506
tp60
sI61
(F162.24799990653992
F721.5562159610157
F1.362606933740469
F529.5409836058034
tp61
sI62
(F154.64900016784668
F644.148021240904
F1.3820367733002754
F466.0860215048343
tp62
sI63
(F155.32399988174438
F637.1619396476941
F1.3866658213987695
F459.4920634915272
tp63
sI64
(F173.3360002040863
F677.2367449955681
F1.368414209754883
F494.9062499993171
tp64
sI65
(F175.10300016403198
F658.239163348077
F1.3796596641376466
F477.10256410192875
tp65
sI66
(F177.71600008010864
F629.6813293423337
F1.3791082608063772
F456.5858585852812
tp66
sI67
(F180.38700008392334
F650.4827208456842
F1.3761975758390301
F472.66666666601463
tp67
sI68
(F189.15899991989136
F663.0433750855236
F1.366809637307988
F485.10294117579275
tp68
sI69
(F201.14900016784668
F651.0498809878281
F1.373929037554424
F473.8599033809552
tp69
sI70
(F206.56500005722046
F674.6565684009092
F1.3788467203661627
F489.290476189949
tp70
sI71
(F201.4100000858307
F667.4366167532629
F1.3675269521877738
F488.0610328633712
tp71
sI72
(F208.95300006866455
F656.0987701700525
F1.3847562009056855
F473.8009259253996
tp72
sI73
(F214.45099997520447
F657.6886930057909
F1.380189575963557
F476.5205479447534
tp73
sI74
(F206.08399987220764
F621.7568948053763
F1.3803693249359872
F450.42792792733894
tp74
sI75
(F229.41200017929077
F674.5183750229027
F1.3710342326232046
F491.97777777754266
tp75
sI76
(F314.30200004577637
F772.1039726238578
F1.350463777823005
F571.7324561407462
tp76
sI77
(F318.73799991607666
F651.3790033425214
F1.3769840014295214
F473.0476190473453
tp77
sI78
(F318.08899998664856
F628.8789913108586
F1.3831519363760527
F454.6709401705803
tp78
sI79
(F365.1060001850128
F694.9263494379665
F1.3678970849053487
F508.02531645577096
tp79
s.