(dp0
I1
F0.1510000228881836
sI2
F0.4179999828338623
sI3
F0.7690000534057617
sI4
F1.062000036239624
sI5
F1.75
sI6
F2.3959999084472656
sI7
F3.43399977684021
sI8
F3.0870001316070557
sI9
F3.4560000896453857
sI10
F4.901000022888184
sI11
F5.8459999561309814
sI12
F6.621999979019165
sI13
F8.376999855041504
sI14
F9.450000047683716
sI15
F9.250999927520752
sI16
F9.526000022888184
sI17
F13.370000123977661
sI18
F12.996000051498413
sI19
F17.52500009536743
sI20
F21.473000049591064
sI21
F20.38099980354309
sI22
F22.924000024795532
sI23
F27.250999927520752
sI24
F25.244999885559082
sI25
F29.713000059127808
sI26
F34.849000215530396
sI27
F33.27800011634827
sI28
F36.88300013542175
sI29
F36.91100001335144
sI30
F47.83500003814697
sI31
F42.95700001716614
sI32
F45.85699987411499
sI33
F50.54699993133545
sI34
F52.888999938964844
sI35
F56.532999992370605
sI36
F65.60000014305115
sI37
F63.424999952316284
sI38
F78.98800015449524
sI39
F81.72000002861023
sI40
F79.35899996757507
sI41
F97.49500012397766
sI42
F90.9760000705719
sI43
F112.93300008773804
sI44
F108.35700011253357
sI45
F103.03200006484985
s.