(dp0
I1
(F0.0820000171661377
F260.873227847456
F1.4546834266586708
F179.33333333333405
tp1
sI2
(F0.3250000476837158
F476.3441050776422
F1.4261799553222692
F334.000000000003
tp2
sI3
(F0.4289999008178711
F376.18227204338353
F1.4505743137919327
F259.3333333333395
tp3
sI4
(F0.7130000591278076
F403.2908346308652
F1.3930598778268037
F289.500000000004
tp4
sI5
(F1.1089999675750732
F416.04725801394864
F1.4008325185655386
F296.9999999999883
tp5
sI6
(F1.0970001220703125
F305.85127383674876
F1.384638563647276
F220.8888888888852
tp6
sI7
(F2.49399995803833
F512.8913875801675
F1.4506019042671356
F353.5714285714297
tp7
sI8
(F2.255000114440918
F407.39727061322765
F1.4054239607183743
F289.8749999999921
tp8
sI9
(F2.6449999809265137
F431.7654010493008
F1.428635518177771
F302.2222222222355
tp9
sI10
(F3.260999917984009
F421.7810699590494
F1.4169576818332004
F297.6666666666903
tp10
sI11
(F3.7690000534057617
F387.73641685373974
F1.4239151742902703
F272.30303030305254
tp11
sI12
(F4.503999948501587
F435.94517360578857
F1.4211741600838557
F306.7500000000463
tp12
sI13
(F5.483999967575073
F431.84918068378107
F1.4104445227924405
F306.17948717954044
tp13
sI14
(F5.500999927520752
F398.2827564363389
F1.4364856822948429
F277.26190476195103
tp14
sI15
(F5.875
F368.37731648636276
F1.3994917046756843
F263.2222222222674
tp15
sI16
(F7.427999973297119
F422.13850572688017
F1.4299681210225477
F295.2083333333442
tp16
sI17
(F8.972999811172485
F433.9541529998118
F1.4412387212158897
F301.0980392156754
tp17
sI18
(F8.480000019073486
F399.3697862682393
F1.4422502814475486
F276.9074074074039
tp18
sI19
(F11.086999893188477
F442.19559506012394
F1.4220914533079958
F310.9473684210051
tp19
sI20
(F11.175000190734863
F423.4342437845783
F1.4267453600875315
F296.7833333332869
tp20
sI21
(F12.802000045776367
F450.6397075248172
F1.4275809108498094
F315.66666666659245
tp21
sI22
(F12.505000114440918
F377.01040646655
F1.4065166936180018
F268.045454545414
tp22
sI23
(F14.883999824523926
F441.28826635936554
F1.4308016718577476
F308.4202898549863
tp23
sI24
(F15.493000030517578
F411.3335315100712
F1.4023398015404733
F293.3194444443639
tp24
sI25
(F17.122000217437744
F434.0661865553177
F1.4121178099965082
F307.38666666656593
tp25
sI26
(F20.288000106811523
F457.9359394746343
F1.4180960488737726
F322.9230769229765
tp26
sI27
(F21.302000045776367
F468.9902783971363
F1.4369335609250682
F326.38271604931407
tp27
sI28
(F21.049999952316284
F429.4478043478695
F1.4461261000293848
F296.9642857141872
tp28
sI29
(F26.132000207901
F512.7495521862811
F1.4214450830131462
F360.724137931074
tp29
sI30
(F26.53600001335144
F467.65161606229293
F1.4149346280375752
F330.51111111111624
tp30
sI31
(F27.414000034332275
F467.9463220252731
F1.410573316100963
F331.7419354838975
tp31
sI32
(F27.395999908447266
F421.08466537701213
F1.4152124308988783
F297.54166666664906
tp32
sI33
(F31.83399987220764
F460.82941322141016
F1.4092642606157053
F327.0000000000529
tp33
sI34
(F31.450999975204468
F441.47640068229765
F1.4014251484373097
F315.0196078431843
tp34
sI35
(F33.062000036239624
F451.3444101190077
F1.4151685099882203
F318.9333333334025
tp35
sI36
(F36.48099994659424
F448.1772065401135
F1.4222830955077725
F315.11111111118754
tp36
sI37
(F38.54700016975403
F463.62043516998233
F1.406330945914516
F329.66666666678304
tp37
sI38
(F39.57099986076355
F454.861755718342
F1.4012008579963746
F324.6228070176638
tp38
sI39
(F38.31699991226196
F430.12061236414996
F1.4269462003173095
F301.4273504274402
tp39
sI40
(F40.99000000953674
F434.4403717037276
F1.387803663102008
F313.041666666789
tp40
sI41
(F44.73399996757507
F468.5108131293921
F1.4305141002603303
F327.5121951221108
tp41
sI42
(F46.95299983024597
F449.917253513483
F1.4171684901422872
F317.4761904763422
tp42
sI43
(F47.40500020980835
F425.54597436097794
F1.4110484961068783
F301.5813953489699
tp43
sI44
(F54.480000019073486
F475.6018959658441
F1.398019201608966
F340.1969696971821
tp44
sI45
(F54.37899994850159
F469.38865023802896
F1.409983262473728
F332.90370370391184
tp45
sI46
(F65.42499995231628
F485.14204145184056
F1.4179431065805719
F342.1449275364655
tp46
sI47
(F68.21900010108948
F491.5155372279687
F1.4043870217454482
F349.98581560308537
tp47
sI48
(F66.83200001716614
F450.9458744819506
F1.4115339084722742
F319.4722222224308
tp48
sI49
(F66.60800004005432
F428.1531202505032
F1.4060072530780297
F304.51700680291003
tp49
sI50
(F75.96000003814697
F465.99107887739905
F1.3898841111046891
F335.2733333335441
tp50
sI51
(F75.55200004577637
F455.7035479846653
F1.413879562014156
F322.3071895427135
tp51
sI52
(F72.73699998855591
F430.178400225578
F1.4087629195386613
F305.35897435918594
tp52
sI53
(F81.53999996185303
F455.18646327296165
F1.3915257860907428
F327.11320754732924
tp53
sI54
(F89.82699990272522
F492.1841503156561
F1.4118179819945362
F348.61728395067354
tp54
sI55
(F81.18200016021729
F425.52936866111133
F1.4066663827590853
F302.5090909092908
tp55
sI56
(F98.29299998283386
F486.41327632358497
F1.4074409745329495
F345.6011904762104
tp56
sI57
(F98.04999995231628
F488.6975595357172
F1.4296002511436987
F341.84210526316906
tp57
sI58
(F109.11299991607666
F519.2088413775904
F1.4056907435890986
F369.36206896540665
tp58
sI59
(F97.34099984169006
F453.84181156280397
F1.4117502442242778
F321.4745762712292
tp59
sI60
(F117.12100005149841
F515.7871133283516
F1.4046915060238392
F367.1888888887451
tp60
sI61
(F103.62599992752075
F447.263121218442
F1.4065119719377048
F317.9945355191413
tp61
sI62
(F108.61500000953674
F447.0002701257851
F1.412299137818846
F316.5053763440882
tp62
sI63
(F112.45299983024597
F453.3240929906111
F1.4165675243495404
F320.0158730158441
tp63
sI64
(F115.93700003623962
F452.90496803892614
F1.4083367699973761
F321.5885416666143
tp64
sI65
(F123.87700009346008
F468.787406202848
F1.40733652851337
F333.1025641024526
tp65
sI66
(F128.44799995422363
F476.24323611333426
F1.397725612926647
F340.7272727271168
tp66
sI67
(F139.617999792099
F494.49240944867125
F1.3898976982456726
F355.7761194027583
tp67
sI68
(F141.29900002479553
F498.7522022923275
F1.4142508550894668
F352.6617647056512
tp68
sI69
(F135.7519998550415
F452.51329382219507
F1.4171205588773064
F319.318840579585
tp69
sI70
(F148.5
F492.24212639164676
F1.3961863710840692
F352.5619047616439
tp70
sI71
(F162.5110001564026
F529.5790820555895
F1.389782963850386
F381.05164319210934
tp71
sI72
(F171.4869999885559
F524.8854724821447
F1.4030723600798793
F374.0972222218546
tp72
sI73
(F174.30800008773804
F513.5036660364074
F1.3978707362687217
F367.3470319631137
tp73
sI74
(F153.94600009918213
F458.8443485796065
F1.4027299758288887
F327.1081081078846
tp74
sI75
(F161.76199984550476
F453.56711005695047
F1.4040972973072268
F323.0311111108896
tp75
sI76
(F163.13100004196167
F455.4127307803953
F1.4073284804760833
F323.6008771927463
tp76
sI77
(F165.1010000705719
F463.3343094039415
F1.4005525447840794
F330.82251082223615
tp77
sI78
(F177.28999996185303
F470.450029199385
F1.4016285358316782
F335.645299144995
tp78
sI79
(F184.12800002098083
F485.2424844268073
F1.3894892686522675
F349.223628691618
tp79
s.